
main.elf:     file format elf32-avr

SYMBOL TABLE:
00800100 l    d  .data	00000000 .data
00007000 l    d  .text	00000000 .text
00800106 l    d  .bss	00000000 .bss
0080013b l    d  .noinit	00000000 .noinit
00000000 l    d  .comment	00000000 .comment
00000000 l    d  .note.gnu.avr.deviceinfo	00000000 .note.gnu.avr.deviceinfo
00000000 l    d  .debug_aranges	00000000 .debug_aranges
00000000 l    d  .debug_info	00000000 .debug_info
00000000 l    d  .debug_abbrev	00000000 .debug_abbrev
00000000 l    d  .debug_line	00000000 .debug_line
00000000 l    d  .debug_frame	00000000 .debug_frame
00000000 l    d  .debug_str	00000000 .debug_str
00000000 l    d  .debug_line_str	00000000 .debug_line_str
00000000 l    d  .debug_loclists	00000000 .debug_loclists
00000000 l    d  .debug_macro	00000000 .debug_macro
00000000 l    d  .debug_rnglists	00000000 .debug_rnglists
00000000 l    df *ABS*	00000000 main.c
0000003e l       *ABS*	00000000 __SP_H__
0000003d l       *ABS*	00000000 __SP_L__
0000003f l       *ABS*	00000000 __SREG__
00000000 l       *ABS*	00000000 __tmp_reg__
00000001 l       *ABS*	00000000 __zero_reg__
000070e4 l       .text	00000000 .Loc.0
000070e4 l       .text	00000000 L0
000070e4 l       .text	00000000 .Loc.1
000070f4 l       .text	00000000 __BOOTLOADERENTRY_FROMSOFTWARE__bootup_investigate_RAMEND_done6
000070f2 l       .text	00000000 __BOOTLOADERENTRY_FROMSOFTWARE__bootup_investigate_RAMEND_mismatch6
0080013c l     O .noinit	00000001 __BOOTLOADERENTRY_FROMSOFTWARE__bootup_RAMEND_doesmatch
0080013b l     O .noinit	00000001 __BOOTLOADERENTRY_FROMSOFTWARE__bootup_MCUCSR
000070fc l       .text	00000000 .Loc.2
000070fc l       .text	00000000 L0
00007382 l       .text	00000000 .Loc.3
00007382 l       .text	00000000 L0
00007382 l       .text	00000000 .Loc.4
00007384 l       .text	00000000 .Loc.5
00007384 l       .text	00000000 .Loc.6
00007384 l       .text	00000000 .Loc.7
00007384 l       .text	00000000 .Loc.8
00007386 l       .text	00000000 .Loc.9
00007386 l       .text	00000000 .Loc.10
00007388 l       .text	00000000 .Loc.11
0000738c l       .text	00000000 .Loc.12
00007392 l       .text	00000000 .Loc.13
00007392 l       .text	00000000 .Loc.14
00007394 l       .text	00000000 .Loc.15
00007398 l       .text	00000000 .Loc.16
00007398 l       .text	00000000 .Loc.17
00007398 l       .text	00000000 .Loc.18
0000739a l       .text	00000000 .Loc.19
0000739c l       .text	00000000 .Loc.20
0000739e l       .text	00000000 .Loc.21
00800102 l     O .data	00000004 signatureBytes
000073a4 l       .text	00000000 .Loc.22
000073a6 l       .text	00000000 .Loc.23
000073a6 l       .text	00000000 .Loc.24
000073aa l       .text	00000000 .Loc.25
000073ae l       .text	00000000 .Loc.26
000073ae l       .text	00000000 .Loc.27
000073ae l       .text	00000000 .Loc.28
000073b2 l       .text	00000000 .Loc.29
000073b2 l       .text	00000000 .Loc.30
000073b2 l       .text	00000000 .Loc.31
000073b8 l       .text	00000000 .Loc.32
000073ba l       .text	00000000 .Loc.33
000073ba l       .text	00000000 .Loc.34
000073ba l       .text	00000000 .Loc.35
000073ba l       .text	00000000 .Loc.36
000073c0 l       .text	00000000 .Loc.37
000073c0 l       .text	00000000 .Loc.38
000073c6 l       .text	00000000 .Loc.39
000073c6 l       .text	00000000 .Loc.40
000073c6 l       .text	00000000 .Loc.41
000073c8 l       .text	00000000 .Loc.42
000073c8 l       .text	00000000 .Loc.43
000073cc l       .text	00000000 .Loc.44
000073d0 l       .text	00000000 .Loc.45
000073d0 l       .text	00000000 .Loc.46
000073d0 l       .text	00000000 .Loc.47
000073d6 l       .text	00000000 .Loc.48
000073d8 l       .text	00000000 .Loc.49
000073d8 l       .text	00000000 .Loc.50
000073d8 l       .text	00000000 .Loc.51
000073de l       .text	00000000 .Loc.52
000073de l       .text	00000000 .Loc.53
000073e2 l       .text	00000000 .Loc.54
000073e6 l       .text	00000000 .Loc.55
000073e6 l       .text	00000000 .Loc.56
000073ea l       .text	00000000 .Loc.57
000073ea l       .text	00000000 .Loc.58
000073ea l       .text	00000000 .Loc.59
000073ea l       .text	00000000 .Loc.60
000073ee l       .text	00000000 .Loc.61
000073f0 l       .text	00000000 .Loc.62
000073f0 l       .text	00000000 .Loc.63
000073f2 l       .text	00000000 .Loc.64
000073f2 l       .text	00000000 .Loc.65
000073f2 l       .text	00000000 .Loc.66
000073f2 l       .text	00000000 .Loc.67
000073f2 l       .text	00000000 .Loc.68
000073f4 l       .text	00000000 .Loc.69
000073f4 l       .text	00000000 .Loc.70
000073f8 l       .text	00000000 .Loc.71
000073f8 l       .text	00000000 .Loc.72
000073f8 l       .text	00000000 .Loc.73
000073f8 l       .text	00000000 .Loc.74
000073fc l       .text	00000000 .Loc.75
000073fe l       .text	00000000 .Loc.76
00007400 l       .text	00000000 .Loc.77
00007402 l       .text	00000000 .Loc.78
00007402 l       .text	00000000 .Loc.79
00007402 l       .text	00000000 .Loc.80
00007406 l       .text	00000000 .Loc.81
00007406 l       .text	00000000 .Loc.82
00007408 l       .text	00000000 .Loc.83
00007408 l       .text	00000000 .Loc.84
0000740c l       .text	00000000 .Loc.85
00007410 l       .text	00000000 .Loc.86
00007412 l       .text	00000000 .Loc.87
00007412 l       .text	00000000 .Loc.88
00007416 l       .text	00000000 .Loc.89
00007416 l       .text	00000000 .Loc.90
00800139 l     O .bss	00000001 stayinloader
0000741e l       .text	00000000 L0
0000741e l       .text	00000000 .Loc.91
0000741e l       .text	00000000 L0
0000741e l       .text	00000000 .Loc.92
0000741e l       .text	00000000 .Loc.93
0000741e l       .text	00000000 .Loc.94
0000741e l       .text	00000000 .Loc.95
00007420 l       .text	00000000 .Loc.96
00007420 l       .text	00000000 .Loc.97
00007424 l       .text	00000000 .Loc.98
00007424 l       .text	00000000 .Loc.99
00007424 l       .text	00000000 .Loc.100
00007424 l       .text	00000000 .Loc.101
00007428 l       .text	00000000 .Loc.102
00007428 l       .text	00000000 .Loc.103
0000742c l       .text	00000000 .Loc.104
0000742c l       .text	00000000 .Loc.105
0000742c l       .text	00000000 .Loc.106
00007430 l       .text	00000000 _mywait_sleeploop263
00007438 l       .text	00000000 .Loc.107
00007438 l       .text	00000000 .Loc.108
00007438 l       .text	00000000 .Loc.109
00007438 l       .text	00000000 .Loc.110
00007438 l       .text	00000000 .Loc.111
0000743e l       .text	00000000 .Loc.112
00007442 l       .text	00000000 .Loc.113
00007442 l       .text	00000000 .Loc.114
00007446 l       .text	00000000 .Loc.115
0000744a l       .text	00000000 .Loc.116
0000744a l       .text	00000000 .Loc.117
0000744e l       .text	00000000 .Loc.118
0000744e l       .text	00000000 .Loc.119
0000744e l       .text	00000000 .Loc.120
0000744e l       .text	00000000 .Loc.121
00007450 l       .text	00000000 .Loc.122
00007452 l       .text	00000000 .Loc.123
00007452 l       .text	00000000 .Loc.124
00007452 l       .text	00000000 .Loc.125
00007452 l       .text	00000000 .Loc.126
00007454 l       .text	00000000 .Loc.127
00007454 l       .text	00000000 .Loc.128
00007456 l       .text	00000000 .Loc.129
00007456 l       .text	00000000 .Loc.130
0000745a l       .text	00000000 .Loc.131
0000745a l       .text	00000000 .Loc.132
0000745e l       .text	00000000 .Loc.133
0000745e l       .text	00000000 .Loc.134
00007460 l       .text	00000000 .Loc.135
00007466 l       .text	00000000 .Loc.136
00007466 l       .text	00000000 .Loc.137
0000746c l       .text	00000000 .Loc.138
0000746c l       .text	00000000 .Loc.139
0000746e l       .text	00000000 .Loc.140
0000746e l       .text	00000000 .Loc.141
0000746e l       .text	00000000 .Loc.142
0000746e l       .text	00000000 .Loc.143
0000746e l       .text	00000000 .Loc.144
00007484 l       .text	00000000 .Loc.145
00007484 l       .text	00000000 .Loc.146
00007484 l       .text	00000000 .Loc.147
00007484 l       .text	00000000 .Loc.148
00007484 l       .text	00000000 .Loc.149
00007488 l       .text	00000000 .Loc.150
0000748e l       .text	00000000 .Loc.151
0000748e l       .text	00000000 .Loc.152
00007490 l       .text	00000000 .Loc.153
00007490 l       .text	00000000 .Loc.154
00007492 l       .text	00000000 .Loc.155
00007492 l       .text	00000000 .Loc.156
00007492 l       .text	00000000 .Loc.157
00007498 l       .text	00000000 _mywait_sleeploop376
000074a0 l       .text	00000000 .Loc.158
000074a0 l       .text	00000000 .Loc.159
000074a2 l       .text	00000000 .Loc.160
000074a4 l       .text	00000000 .Loc.161
000074a4 l       .text	00000000 .Loc.162
000074a4 l       .text	00000000 .Loc.163
000074a4 l       .text	00000000 .Loc.164
000074a4 l       .text	00000000 .Loc.165
000074a4 l       .text	00000000 .Loc.166
000074a4 l       .text	00000000 .Loc.167
000074aa l       .text	00000000 .Loc.168
000074aa l       .text	00000000 .Loc.169
000074ae l       .text	00000000 .Loc.170
000074ae l       .text	00000000 .Loc.171
000074ba l       .text	00000000 .Loc.172
000074be l       .text	00000000 .Loc.173
000074be l       .text	00000000 .Loc.174
000074be l       .text	00000000 .Loc.175
000074be l       .text	00000000 .Loc.176
000074be l       .text	00000000 .Loc.177
000074c6 l       .text	00000000 L0
000074c8 l       .text	00000000 .Loc.178
000074c8 l       .text	00000000 .Loc.179
000074cc l       .text	00000000 L0
000074ce l       .text	00000000 .Loc.180
000074ce l       .text	00000000 .Loc.181
000074ce l       .text	00000000 .Loc.182
000074d4 l       .text	00000000 .Loc.183
000074d4 l       .text	00000000 .Loc.184
000074da l       .text	00000000 .Loc.185
000074da l       .text	00000000 .Loc.186
0080013a l     O .bss	00000001 usbMsgFlags
000074de l       .text	00000000 .Loc.187
000074de l       .text	00000000 .Loc.188
000074e0 l       .text	00000000 .Loc.189
000074e4 l       .text	00000000 .Loc.190
000074e4 l       .text	00000000 .Loc.191
000074e6 l       .text	00000000 .Loc.192
000074ea l       .text	00000000 L0
000074ec l       .text	00000000 .Loc.193
000074ec l       .text	00000000 .Loc.194
000074ec l       .text	00000000 .Loc.195
000074ec l       .text	00000000 .Loc.196
000074ec l       .text	00000000 .Loc.197
000074ec l       .text	00000000 .Loc.198
000074ec l       .text	00000000 .Loc.199
00800130 l     O .bss	00000004 replyBuffer.0
000074f8 l       .text	00000000 .Loc.200
000074f8 l       .text	00000000 .Loc.201
000074fc l       .text	00000000 .Loc.202
000074fc l       .text	00000000 .Loc.203
000074fe l       .text	00000000 .Loc.204
00007500 l       .text	00000000 .Loc.205
00007504 l       .text	00000000 .Loc.206
00007504 l       .text	00000000 .Loc.207
00007504 l       .text	00000000 .Loc.208
00007504 l       .text	00000000 .Loc.209
00007506 l       .text	00000000 .Loc.210
00007506 l       .text	00000000 .Loc.211
00007506 l       .text	00000000 .Loc.212
00007506 l       .text	00000000 .Loc.213
00007516 l       .text	00000000 .Loc.214
00007516 l       .text	00000000 .Loc.215
0000751a l       .text	00000000 L0
0000751c l       .text	00000000 .Loc.216
00007520 l       .text	00000000 L0
00007522 l       .text	00000000 .Loc.217
00007522 l       .text	00000000 .Loc.218
00007524 l       .text	00000000 .Loc.219
00007526 l       .text	00000000 .Loc.220
0000752a l       .text	00000000 L0
0000752c l       .text	00000000 .Loc.221
0000752c l       .text	00000000 .Loc.222
00800137 l     O .bss	00000002 currentAddress
00007538 l       .text	00000000 .Loc.223
00007538 l       .text	00000000 .Loc.224
0000753c l       .text	00000000 .Loc.225
0000753c l       .text	00000000 .Loc.226
0000753e l       .text	00000000 .Loc.227
00800136 l     O .bss	00000001 bytesRemaining
00007542 l       .text	00000000 .Loc.228
00007542 l       .text	00000000 .Loc.229
00007546 l       .text	00000000 .Loc.230
00800135 l     O .bss	00000001 isLastPage
0000754a l       .text	00000000 .Loc.231
0000754a l       .text	00000000 .Loc.232
00800134 l     O .bss	00000001 currentRequest
0000754e l       .text	00000000 .Loc.233
0000754e l       .text	00000000 .Loc.234
0000754e l       .text	00000000 .Loc.235
0000754e l       .text	00000000 .Loc.236
0000754e l       .text	00000000 .Loc.237
00007552 l       .text	00000000 .Loc.238
00007552 l       .text	00000000 .Loc.239
00007558 l       .text	00000000 .Loc.240
00007558 l       .text	00000000 .Loc.241
00800100 l     O .data	00000001 usbMsgLen
0000755c l       .text	00000000 .Loc.242
0000755c l       .text	00000000 .Loc.243
0000755c l       .text	00000000 .Loc.244
00007560 l       .text	00000000 .Loc.245
00007560 l       .text	00000000 .Loc.246
00007564 l       .text	00000000 .Loc.247
00007568 l       .text	00000000 .Loc.248
00007568 l       .text	00000000 .Loc.249
0000756c l       .text	00000000 .Loc.250
00007570 l       .text	00000000 L0
00007572 l       .text	00000000 .Loc.251
00007572 l       .text	00000000 .Loc.252
00007572 l       .text	00000000 .Loc.253
00007572 l       .text	00000000 .Loc.254
00007572 l       .text	00000000 .Loc.255
00007572 l       .text	00000000 .Loc.256
00007572 l       .text	00000000 .Loc.257
0000757a l       .text	00000000 .Loc.258
0000757a l       .text	00000000 .Loc.259
00007582 l       .text	00000000 .Loc.260
00007582 l       .text	00000000 .Loc.261
0000758e l       .text	00000000 .Loc.262
0000758e l       .text	00000000 .Loc.263
0000758e l       .text	00000000 .Loc.264
0000758e l       .text	00000000 .Loc.265
00007592 l       .text	00000000 .Loc.266
00007592 l       .text	00000000 .Loc.267
00007592 l       .text	00000000 .Loc.268
00007592 l       .text	00000000 .Loc.269
0000759a l       .text	00000000 .Loc.270
0000759a l       .text	00000000 .Loc.271
0000759a l       .text	00000000 .Loc.272
0000759c l       .text	00000000 .Loc.273
0000759c l       .text	00000000 .Loc.274
000075a4 l       .text	00000000 .Loc.275
000075a4 l       .text	00000000 .Loc.276
000075a4 l       .text	00000000 .Loc.277
000075a8 l       .text	00000000 .Loc.278
000075ac l       .text	00000000 .Loc.279
000075ac l       .text	00000000 .Loc.280
000075ae l       .text	00000000 .Loc.281
000075b2 l       .text	00000000 .Loc.282
000075b2 l       .text	00000000 .Loc.283
000075b2 l       .text	00000000 .Loc.284
000075b6 l       .text	00000000 .Loc.285
000075b6 l       .text	00000000 .Loc.286
000075ba l       .text	00000000 .Loc.287
000075ba l       .text	00000000 .Loc.288
000075ba l       .text	00000000 .Loc.289
000075ba l       .text	00000000 .Loc.290
000075ba l       .text	00000000 .Loc.291
000075ba l       .text	00000000 .Loc.292
000075ba l       .text	00000000 .Loc.293
000075bc l       .text	00000000 .Loc.294
000075bc l       .text	00000000 .Loc.295
000075c0 l       .text	00000000 .Loc.296
000075c0 l       .text	00000000 .Loc.297
000075c0 l       .text	00000000 .Loc.298
000075c4 l       .text	00000000 .Loc.299
000075c4 l       .text	00000000 .Loc.300
000075c4 l       .text	00000000 .Loc.301
000075c4 l       .text	00000000 .Loc.302
000075c8 l       .text	00000000 .Loc.303
000075c8 l       .text	00000000 .Loc.304
000075c8 l       .text	00000000 .Loc.305
000075cc l       .text	00000000 .Loc.306
000075ce l       .text	00000000 .Loc.307
000075ce l       .text	00000000 .Loc.308
000075ce l       .text	00000000 .Loc.309
000075ce l       .text	00000000 .Loc.310
000075d6 l       .text	00000000 .Loc.311
000075d6 l       .text	00000000 .Loc.312
000075d8 l       .text	00000000 .Loc.313
000075dc l       .text	00000000 .Loc.314
000075dc l       .text	00000000 .Loc.315
000075e0 l       .text	00000000 .Loc.316
000075e0 l       .text	00000000 .Loc.317
000075e0 l       .text	00000000 .Loc.318
000075e4 l       .text	00000000 .Loc.319
000075e6 l       .text	00000000 .Loc.320
000075ea l       .text	00000000 .Loc.321
000075ec l       .text	00000000 .Loc.322
000075ec l       .text	00000000 .Loc.323
000075ec l       .text	00000000 .Loc.324
000075ec l       .text	00000000 .Loc.325
000075ec l       .text	00000000 .Loc.326
000075ec l       .text	00000000 .Loc.327
000075f0 l       .text	00000000 .Loc.328
000075f0 l       .text	00000000 .Loc.329
000075f0 l       .text	00000000 .Loc.330
000075f0 l       .text	00000000 .Loc.331
000075f0 l       .text	00000000 .Loc.332
000075f4 l       .text	00000000 .Loc.333
000075fc l       .text	00000000 .Loc.334
000075fe l       .text	00000000 .Loc.335
000075fe l       .text	00000000 .Loc.336
000075fe l       .text	00000000 .Loc.337
00007600 l       .text	00000000 .Loc.338
00007604 l       .text	00000000 .Loc.339
00007604 l       .text	00000000 .Loc.340
00007604 l       .text	00000000 .Loc.341
00007604 l       .text	00000000 .Loc.342
00007604 l       .text	00000000 .Loc.343
00007606 l       .text	00000000 .Loc.344
0000760a l       .text	00000000 .Loc.345
0000760a l       .text	00000000 .Loc.346
0000760a l       .text	00000000 .Loc.347
0000760a l       .text	00000000 .Loc.348
0000760a l       .text	00000000 .Loc.349
0000760e l       .text	00000000 .Loc.350
00007610 l       .text	00000000 .Loc.351
00007614 l       .text	00000000 .Loc.352
00007614 l       .text	00000000 .Loc.353
00007614 l       .text	00000000 .Loc.354
00007618 l       .text	00000000 .Loc.355
00007618 l       .text	00000000 .Loc.356
00007618 l       .text	00000000 .Loc.357
00007618 l       .text	00000000 .Loc.358
00007618 l       .text	00000000 .Loc.359
0000761c l       .text	00000000 .Loc.360
00007628 l       .text	00000000 .Loc.361
0000762c l       .text	00000000 .Loc.362
0000762c l       .text	00000000 .Loc.363
0000762c l       .text	00000000 .Loc.364
0000762c l       .text	00000000 .Loc.365
0000762c l       .text	00000000 .Loc.366
00007630 l       .text	00000000 .Loc.367
0000763c l       .text	00000000 .Loc.368
00007640 l       .text	00000000 .Loc.369
00007640 l       .text	00000000 .Loc.370
00007640 l       .text	00000000 .Loc.371
00007640 l       .text	00000000 .Loc.372
00007640 l       .text	00000000 .Loc.373
00007644 l       .text	00000000 .Loc.374
00007650 l       .text	00000000 .Loc.375
00007650 l       .text	00000000 .Loc.376
00007654 l       .text	00000000 .Loc.377
00007658 l       .text	00000000 .Loc.378
00007658 l       .text	00000000 .Loc.379
0000765c l       .text	00000000 .Loc.380
0000765c l       .text	00000000 .Loc.381
0000765c l       .text	00000000 .Loc.382
0000765e l       .text	00000000 .Loc.383
0000765e l       .text	00000000 .Loc.384
00007660 l       .text	00000000 .Loc.385
00007664 l       .text	00000000 L0
0000766a l       .text	00000000 .Loc.386
0000766e l       .text	00000000 .Loc.387
00007670 l       .text	00000000 .Loc.388
00007672 l       .text	00000000 .Loc.389
00007672 l       .text	00000000 .Loc.390
00007674 l       .text	00000000 .Loc.391
00007676 l       .text	00000000 .Loc.392
00007676 l       .text	00000000 .Loc.393
00007676 l       .text	00000000 .Loc.394
0000767e l       .text	00000000 .Loc.395
0000767e l       .text	00000000 .Loc.396
0000767e l       .text	00000000 .Loc.397
0000767e l       .text	00000000 .Loc.398
0000767e l       .text	00000000 .Loc.399
0000767e l       .text	00000000 .Loc.400
00007688 l       .text	00000000 .Loc.401
00007688 l       .text	00000000 .Loc.402
0000768e l       .text	00000000 .Loc.403
0000768e l       .text	00000000 .Loc.404
0000768e l       .text	00000000 .Loc.405
00007690 l       .text	00000000 .Loc.406
00007690 l       .text	00000000 .Loc.407
00007694 l       .text	00000000 .Loc.408
00007694 l       .text	00000000 .Loc.409
00007694 l       .text	00000000 .Loc.410
00007694 l       .text	00000000 .Loc.411
00007698 l       .text	00000000 .Loc.412
00007698 l       .text	00000000 .Loc.413
0000769e l       .text	00000000 .Loc.414
0000769e l       .text	00000000 .Loc.415
000076a6 l       .text	00000000 .Loc.416
000076ae l       .text	00000000 .Loc.417
000076ae l       .text	00000000 .Loc.418
000076b0 l       .text	00000000 .Loc.419
000076be l       .text	00000000 .Loc.420
000076c0 l       .text	00000000 .Loc.421
000076c0 l       .text	00000000 .Loc.422
000076c2 l       .text	00000000 .Loc.423
000076c4 l       .text	00000000 .Loc.424
000076c4 l       .text	00000000 .Loc.425
000076ca l       .text	00000000 .Loc.426
000076ca l       .text	00000000 .Loc.427
000076ce l       .text	00000000 .Loc.428
000076ce l       .text	00000000 .Loc.429
000076d0 l       .text	00000000 .Loc.430
000076e8 l       .text	00000000 .Loc.431
000076ea l       .text	00000000 .Loc.432
000076ea l       .text	00000000 .Loc.433
000076fc l       .text	00000000 .Loc.434
000076fc l       .text	00000000 .Loc.435
000076fc l       .text	00000000 .Loc.436
00007700 l       .text	00000000 .Loc.437
00007704 l       .text	00000000 .Loc.438
00007708 l       .text	00000000 .Loc.439
0000770c l       .text	00000000 .Loc.440
0000770e l       .text	00000000 .Loc.441
00007710 l       .text	00000000 .Loc.442
00007718 l       .text	00000000 .Loc.443
00007718 l       .text	00000000 .Loc.444
0000771a l       .text	00000000 .Loc.445
0000772c l       .text	00000000 .Loc.446
0000772e l       .text	00000000 .Loc.447
0000772e l       .text	00000000 .Loc.448
0000772e l       .text	00000000 .Loc.449
00007734 l       .text	00000000 .Loc.450
00007734 l       .text	00000000 .Loc.451
00007736 l       .text	00000000 .Loc.452
00007748 l       .text	00000000 .Loc.453
0000774a l       .text	00000000 .Loc.454
0000774a l       .text	00000000 .Loc.455
0000774a l       .text	00000000 .Loc.456
00007750 l       .text	00000000 .Loc.457
00007752 l       .text	00000000 .Loc.458
0000775a l       .text	00000000 .Loc.459
0000775e l       .text	00000000 .Loc.460
0000775e l       .text	00000000 .Loc.461
0000775e l       .text	00000000 .Loc.462
00007762 l       .text	00000000 .Loc.463
00007766 l       .text	00000000 .Loc.464
00007766 l       .text	00000000 .Loc.465
00007766 l       .text	00000000 .Loc.466
00007766 l       .text	00000000 .Loc.467
00007766 l       .text	00000000 .Loc.468
00007770 l       .text	00000000 .Loc.469
00007770 l       .text	00000000 .Loc.470
00007776 l       .text	00000000 .Loc.471
00007776 l       .text	00000000 .Loc.472
0000777a l       .text	00000000 .Loc.473
0000777c l       .text	00000000 .Loc.474
00007784 l       .text	00000000 .Loc.475
00007788 l       .text	00000000 .Loc.476
00007788 l       .text	00000000 .Loc.477
00007790 l       .text	00000000 .Loc.478
00007790 l       .text	00000000 .Loc.479
00007794 l       .text	00000000 .Loc.480
00007794 l       .text	00000000 .Loc.481
00007798 l       .text	00000000 L0
0000779a l       .text	00000000 .Loc.482
0000779a l       .text	00000000 .Loc.483
0000779e l       .text	00000000 .Loc.484
0000779e l       .text	00000000 .Loc.485
0000779e l       .text	00000000 .Loc.486
0000779e l       .text	00000000 .Loc.487
0000779e l       .text	00000000 .Loc.488
000077a0 l       .text	00000000 .Loc.489
000077a0 l       .text	00000000 .Loc.490
000077a0 l       .text	00000000 .Loc.491
000077a2 l       .text	00000000 .Loc.492
000077a2 l       .text	00000000 .Loc.493
000077a4 l       .text	00000000 .Loc.494
000077a8 l       .text	00000000 .Loc.495
000077a8 l       .text	00000000 .Loc.496
000077aa l       .text	00000000 .Loc.497
000077ae l       .text	00000000 .Loc.498
000077ae l       .text	00000000 .Loc.499
000077b2 l       .text	00000000 .Loc.500
000077b2 l       .text	00000000 .Loc.501
000077b6 l       .text	00000000 .Loc.502
000077b6 l       .text	00000000 .Loc.503
000077b6 l       .text	00000000 .Loc.504
000077b6 l       .text	00000000 .Loc.505
000077b6 l       .text	00000000 .Loc.506
000077b6 l       .text	00000000 .Loc.507
000077b6 l       .text	00000000 .Loc.508
000077b6 l       .text	00000000 .Loc.509
000077b6 l       .text	00000000 .Loc.510
000077ba l       .text	00000000 .Loc.511
000077be l       .text	00000000 L0
000077c0 l       .text	00000000 .Loc.512
000077c0 l       .text	00000000 .Loc.513
000077c4 l       .text	00000000 .Loc.514
000077c4 l       .text	00000000 .Loc.515
000077ca l       .text	00000000 .Loc.516
000077ce l       .text	00000000 .Loc.517
000077d8 l       .text	00000000 .Loc.518
000077d8 l       .text	00000000 .Loc.519
000077e0 l       .text	00000000 .Loc.520
000077e6 l       .text	00000000 .Loc.521
000077e6 l       .text	00000000 .Loc.522
000077ea l       .text	00000000 .Loc.523
000077f0 l       .text	00000000 .Loc.524
000077f0 l       .text	00000000 .Loc.525
000077f0 l       .text	00000000 .Loc.526
000077fa l       .text	00000000 .Loc.527
000077fc l       .text	00000000 .Loc.528
000077fe l       .text	00000000 .Loc.529
000077fe l       .text	00000000 .Loc.530
000077fe l       .text	00000000 .Loc.531
000077fe l       .text	00000000 .Loc.532
00007802 l       .text	00000000 .Loc.533
00007804 l       .text	00000000 .Loc.534
00007804 l       .text	00000000 .Loc.535
00007804 l       .text	00000000 .Loc.536
00007804 l       .text	00000000 .Loc.537
0000780c l       .text	00000000 .Loc.538
00007810 l       .text	00000000 .Loc.539
00007816 l       .text	00000000 .Loc.540
0000781a l       .text	00000000 .Loc.541
0000781a l       .text	00000000 .Loc.542
0000781a l       .text	00000000 .Loc.543
0000781a l       .text	00000000 .Loc.544
0000781a l       .text	00000000 .Loc.545
0000781c l       .text	00000000 .Loc.546
0000781c l       .text	00000000 .Loc.547
0000781c l       .text	00000000 .Loc.548
0000781e l       .text	00000000 .Loc.549
00007822 l       .text	00000000 .Loc.550
00007822 l       .text	00000000 .Loc.551
00007824 l       .text	00000000 .Loc.552
00007824 l       .text	00000000 .Loc.553
00007824 l       .text	00000000 .Loc.554
00007828 l       .text	00000000 .Loc.555
00007828 l       .text	00000000 .Loc.556
00007830 l       .text	00000000 .Loc.557
00007830 l       .text	00000000 .Loc.558
00007830 l       .text	00000000 .Loc.559
00007830 l       .text	00000000 .Loc.560
00007832 l       .text	00000000 .Loc.561
00007832 l       .text	00000000 .Loc.562
00007834 l       .text	00000000 .Loc.563
00007836 l       .text	00000000 .Loc.564
0000783a l       .text	00000000 .Loc.565
0000783a l       .text	00000000 .Loc.566
0000783a l       .text	00000000 .Loc.567
00007840 l       .text	00000000 .Loc.568
00007840 l       .text	00000000 .Loc.569
00007840 l       .text	00000000 .Loc.570
00007844 l       .text	00000000 .Loc.571
00007844 l       .text	00000000 .Loc.572
00007848 l       .text	00000000 .Loc.573
0000784c l       .text	00000000 L0
0000784e l       .text	00000000 .Loc.574
0000784e l       .text	00000000 .Loc.575
00007856 l       .text	00000000 L0
000070fc l       .text	00000000 L0
0000741e l       .text	00000000 L0
00007856 l       .text	00000000 L0
00000000 l       .debug_frame	00000000 L0
000073a6 l       .text	00000000 .L3
000073c8 l       .text	00000000 .L5
000073ba l       .text	00000000 .L6
000073e2 l       .text	00000000 .L8
000073c0 l       .text	00000000 .L16
000073e6 l       .text	00000000 .L9
000073d8 l       .text	00000000 .L10
000073f4 l       .text	00000000 .L12
00007402 l       .text	00000000 .L13
000073f0 l       .text	00000000 .L17
00007408 l       .text	00000000 .L14
00007412 l       .text	00000000 .L15
0000744a l       .text	00000000 .L19
00007466 l       .text	00000000 .L20
00007560 l       .text	00000000 .L21
00007676 l       .text	00000000 .L22
0000755c l       .text	00000000 .L24
000075ba l       .text	00000000 .L25
00007516 l       .text	00000000 .L26
00007558 l       .text	00000000 .L45
00007672 l       .text	00000000 .L81
000075a4 l       .text	00000000 .L28
000075b2 l       .text	00000000 .L29
0000779e l       .text	00000000 .L59
0000757a l       .text	00000000 .L60
0000775e l       .text	00000000 .L61
0000779a l       .text	00000000 .L73
000075b6 l       .text	00000000 .L31
00007506 l       .text	00000000 .L27
000075ae l       .text	00000000 .L114
000075d8 l       .text	00000000 .L32
000075e6 l       .text	00000000 .L34
000075ce l       .text	00000000 .L33
00007650 l       .text	00000000 .L36
00007606 l       .text	00000000 .L37
00007610 l       .text	00000000 .L39
000075f4 l       .text	00000000 .L38
000075fe l       .text	00000000 .L40
00007628 l       .text	00000000 .L41
0000763c l       .text	00000000 .L42
0000766a l       .text	00000000 .L82
0000765e l       .text	00000000 .L43
000075e0 l       .text	00000000 .L44
00007688 l       .text	00000000 .L48
0000769e l       .text	00000000 .L58
000076c4 l       .text	00000000 .L50
00007690 l       .text	00000000 .L49
00007698 l       .text	00000000 .L52
00007718 l       .text	00000000 .L53
0000770c l       .text	00000000 .L54
00007710 l       .text	00000000 .L55
0000772e l       .text	00000000 .L56
0000774a l       .text	00000000 .L57
00007804 l       .text	00000000 .L63
00007770 l       .text	00000000 .L64
000077d8 l       .text	00000000 .L68
0000759c l       .text	00000000 .L62
000077b6 l       .text	00000000 .L74
000077a0 l       .text	00000000 .L75
00007840 l       .text	00000000 .L76
000077ce l       .text	00000000 .L77
000074a4 l       .text	00000000 .L78
0000744e l       .text	00000000 .L79
000077fe l       .text	00000000 .L66
00007784 l       .text	00000000 .L65
000077ea l       .text	00000000 .L67
00007832 l       .text	00000000 .L70
0000781a l       .text	00000000 .L71
00007788 l       .text	00000000 .L69
00007828 l       .text	00000000 .L72
000077ca l       .text	00000000 .L115
000005b6 l       .debug_abbrev	00000000 .Ldebug_abbrev0
00000112 l       .debug_rnglists	00000000 .LLRL67
000006f9 l       .debug_line	00000000 .Ldebug_line0
00000000 l       .debug_macro	00000000 .Ldebug_macro0
0000741e l       .text	00000000 .LFB35
00007856 l       .text	00000000 .LFE35
0000741e l       .text	00000000 .LBI83
0000741e l       .text	00000000 .LBB83
00007424 l       .text	00000000 .LBE83
0000742c l       .text	00000000 .LBI85
0000742c l       .text	00000000 .LBB85
00007438 l       .text	00000000 .LBE85
0000000e l       .debug_loclists	00000000 .LLST8
0000000c l       .debug_loclists	00000000 .LVUS8
0000001c l       .debug_loclists	00000000 .LLST9
0000001a l       .debug_loclists	00000000 .LVUS9
00007438 l       .text	00000000 .LBI87
00007438 l       .text	00000000 .LBB87
0000744a l       .text	00000000 .LBE87
0000744e l       .text	00000000 .LBI89
0000744e l       .text	00000000 .LBB89
00007466 l       .text	00000000 .LBE89
00007452 l       .text	00000000 .LBI91
00007452 l       .text	00000000 .LBB91
00007454 l       .text	00000000 .LBE91
00007466 l       .text	00000000 .LVL32
0000746e l       .text	00000000 .LBI93
0000746e l       .text	00000000 .LBB93
00007484 l       .text	00000000 .LBE93
0000746e l       .text	00000000 .LBB94
00007484 l       .text	00000000 .LBE94
00007484 l       .text	00000000 .LBI95
00007484 l       .text	00000000 .LBB95
000074a4 l       .text	00000000 .LBE95
00007484 l       .text	00000000 .LBI97
00007484 l       .text	00000000 .LBB97
00007490 l       .text	00000000 .LBE97
00007492 l       .text	00000000 .LBI99
00007492 l       .text	00000000 .LBB99
000074a0 l       .text	00000000 .LBE99
00000028 l       .debug_loclists	00000000 .LLST10
00000026 l       .debug_loclists	00000000 .LVUS10
00000036 l       .debug_loclists	00000000 .LLST11
00000034 l       .debug_loclists	00000000 .LVUS11
000074a4 l       .text	00000000 .LBI101
00000024 l       .debug_rnglists	00000000 .LLRL12
00000044 l       .debug_loclists	00000000 .LLST13
00000040 l       .debug_loclists	00000000 .LVUS13
0000005f l       .debug_loclists	00000000 .LLST14
00000057 l       .debug_loclists	00000000 .LVUS14
000074be l       .text	00000000 .LBI103
00000033 l       .debug_rnglists	00000000 .LLRL15
00000080 l       .debug_loclists	00000000 .LLST16
0000007c l       .debug_loclists	00000000 .LVUS16
00000097 l       .debug_loclists	00000000 .LLST17
00000093 l       .debug_loclists	00000000 .LVUS17
000000b8 l       .debug_loclists	00000000 .LLST18
000000b4 l       .debug_loclists	00000000 .LVUS18
00000042 l       .debug_rnglists	00000000 .LLRL19
000000e1 l       .debug_loclists	00000000 .LLST20
000000d5 l       .debug_loclists	00000000 .LVUS20
00000141 l       .debug_loclists	00000000 .LLST21
0000010f l       .debug_loclists	00000000 .LVUS21
000074ec l       .text	00000000 .LBI106
00000051 l       .debug_rnglists	00000000 .LLRL22
00000239 l       .debug_loclists	00000000 .LLST23
0000022f l       .debug_loclists	00000000 .LVUS23
0000027f l       .debug_loclists	00000000 .LLST24
00000277 l       .debug_loclists	00000000 .LVUS24
000002bb l       .debug_loclists	00000000 .LLST25
000002b1 l       .debug_loclists	00000000 .LVUS25
00007500 l       .text	00000000 .LVL40
000075ba l       .text	00000000 .LBI119
00000072 l       .debug_rnglists	00000000 .LLRL26
000002eb l       .debug_loclists	00000000 .LLST27
000002e5 l       .debug_loclists	00000000 .LVUS27
0000031c l       .debug_loclists	00000000 .LLST28
00000310 l       .debug_loclists	00000000 .LVUS28
00000349 l       .debug_loclists	00000000 .LLST29
00000345 l       .debug_loclists	00000000 .LVUS29
00000371 l       .debug_loclists	00000000 .LLST30
00000363 l       .debug_loclists	00000000 .LVUS30
00000082 l       .debug_rnglists	00000000 .LLRL31
000003a6 l       .debug_loclists	00000000 .LLST32
000003a0 l       .debug_loclists	00000000 .LVUS32
00000098 l       .debug_rnglists	00000000 .LLRL33
000003c1 l       .debug_loclists	00000000 .LLST34
000003bf l       .debug_loclists	00000000 .LVUS34
000075ec l       .text	00000000 .LBI124
000000a4 l       .debug_rnglists	00000000 .LLRL35
000003d4 l       .debug_loclists	00000000 .LLST36
000003d0 l       .debug_loclists	00000000 .LVUS36
00000404 l       .debug_loclists	00000000 .LLST37
000003ee l       .debug_loclists	00000000 .LVUS37
0000044d l       .debug_loclists	00000000 .LLST38
0000044b l       .debug_loclists	00000000 .LVUS38
000000b0 l       .debug_rnglists	00000000 .LLRL39
0000045e l       .debug_loclists	00000000 .LLST40
00000458 l       .debug_loclists	00000000 .LVUS40
00007614 l       .text	00000000 .LBB127
00007650 l       .text	00000000 .LBE127
00000476 l       .debug_loclists	00000000 .LLST41
00000474 l       .debug_loclists	00000000 .LVUS41
0000765c l       .text	00000000 .LBI131
0000765c l       .text	00000000 .LBB131
0000765e l       .text	00000000 .LBE131
0000767e l       .text	00000000 .LBB143
0000775e l       .text	00000000 .LBE143
00000483 l       .debug_loclists	00000000 .LLST42
0000047f l       .debug_loclists	00000000 .LVUS42
0000767e l       .text	00000000 .LBI144
000000bc l       .debug_rnglists	00000000 .LLRL43
0000049e l       .debug_loclists	00000000 .LLST44
0000049a l       .debug_loclists	00000000 .LVUS44
000004bd l       .debug_loclists	00000000 .LLST45
000004af l       .debug_loclists	00000000 .LVUS45
0000050d l       .debug_loclists	00000000 .LLST46
00000507 l       .debug_loclists	00000000 .LVUS46
00000528 l       .debug_loclists	00000000 .LLST47
00000524 l       .debug_loclists	00000000 .LVUS47
000076c0 l       .text	00000000 .LVL107
00007572 l       .text	00000000 .LBI149
000000c9 l       .debug_rnglists	00000000 .LLRL48
0000054d l       .debug_loclists	00000000 .LLST49
00000545 l       .debug_loclists	00000000 .LVUS49
00000573 l       .debug_loclists	00000000 .LLST50
0000056b l       .debug_loclists	00000000 .LVUS50
0000758e l       .text	00000000 .LBI151
000000e1 l       .debug_rnglists	00000000 .LLRL51
0000059b l       .debug_loclists	00000000 .LLST52
00000593 l       .debug_loclists	00000000 .LVUS52
000005d3 l       .debug_loclists	00000000 .LLST53
000005c9 l       .debug_loclists	00000000 .LVUS53
00007766 l       .text	00000000 .LBI153
000000f9 l       .debug_rnglists	00000000 .LLRL54
00000601 l       .debug_loclists	00000000 .LLST55
000005f9 l       .debug_loclists	00000000 .LVUS55
00000631 l       .debug_loclists	00000000 .LLST56
0000062d l       .debug_loclists	00000000 .LVUS56
00000648 l       .debug_loclists	00000000 .LLST57
00000642 l       .debug_loclists	00000000 .LVUS57
000077fe l       .text	00000000 .LBB155
00007804 l       .text	00000000 .LBE155
00000661 l       .debug_loclists	00000000 .LLST58
0000065f l       .debug_loclists	00000000 .LVUS58
00000670 l       .debug_loclists	00000000 .LLST59
0000066e l       .debug_loclists	00000000 .LVUS59
000077ea l       .text	00000000 .LVL130
00000106 l       .debug_rnglists	00000000 .LLRL60
0000067b l       .debug_loclists	00000000 .LLST61
00000679 l       .debug_loclists	00000000 .LVUS61
00000690 l       .debug_loclists	00000000 .LLST62
00000684 l       .debug_loclists	00000000 .LVUS62
0000781a l       .text	00000000 .LBB159
00007824 l       .text	00000000 .LBE159
000006d5 l       .debug_loclists	00000000 .LLST63
000006d3 l       .debug_loclists	00000000 .LVUS63
0000781a l       .text	00000000 .LBB160
0000781c l       .text	00000000 .LBE160
000006e2 l       .debug_loclists	00000000 .LLST64
000006de l       .debug_loclists	00000000 .LVUS64
000006fb l       .debug_loclists	00000000 .LLST65
000006f9 l       .debug_loclists	00000000 .LVUS65
0000759a l       .text	00000000 .LVL54
00007790 l       .text	00000000 .LVL119
000077a0 l       .text	00000000 .LBB174
000077a8 l       .text	00000000 .LBE174
00000708 l       .debug_loclists	00000000 .LLST66
00000704 l       .debug_loclists	00000000 .LVUS66
000077b6 l       .text	00000000 .LBI175
000077b6 l       .text	00000000 .LBB175
000077b6 l       .text	00000000 .LBE175
00007382 l       .text	00000000 .LFB29
0000741e l       .text	00000000 .LFE29
00000744 l       .debug_loclists	00000000 .LLST0
0000071c l       .debug_loclists	00000000 .LVUS0
0000081d l       .debug_loclists	00000000 .LLST1
0000080b l       .debug_loclists	00000000 .LVUS1
000073ba l       .text	00000000 .LBB19
000073c0 l       .text	00000000 .LBE19
0000000c l       .debug_rnglists	00000000 .LLRL2
0000085b l       .debug_loclists	00000000 .LLST3
00000859 l       .debug_loclists	00000000 .LVUS3
000073b2 l       .text	00000000 .LBB18
000073ba l       .text	00000000 .LBE18
000073d8 l       .text	00000000 .LBB22
000073de l       .text	00000000 .LBE22
000073ea l       .text	00000000 .LBB23
000073f0 l       .text	00000000 .LBE23
00000868 l       .debug_loclists	00000000 .LLST4
00000864 l       .debug_loclists	00000000 .LVUS4
00000018 l       .debug_rnglists	00000000 .LLRL5
00000885 l       .debug_loclists	00000000 .LLST6
00000881 l       .debug_loclists	00000000 .LVUS6
000008a2 l       .debug_loclists	00000000 .LLST7
000008a0 l       .debug_loclists	00000000 .LVUS7
00007408 l       .text	00000000 .LVL27
00007410 l       .text	00000000 .LVL28
000070e4 l       .text	00000000 .LFB27
000070fc l       .text	00000000 .LFE27
0000742c l       .text	00000000 .LVL30
00007492 l       .text	00000000 .LVL33
000074aa l       .text	00000000 .LVL35
0000779e l       .text	00000000 .LVL122
000074be l       .text	00000000 .LVL36
00007504 l       .text	00000000 .LVL41
000074e4 l       .text	00000000 .LVL37
000074ec l       .text	00000000 .LVL38
000075ba l       .text	00000000 .LVL59
000075cc l       .text	00000000 .LVL64
000075bc l       .text	00000000 .LVL60
000075c0 l       .text	00000000 .LVL61
000075c4 l       .text	00000000 .LVL62
000075ec l       .text	00000000 .LVL71
00007614 l       .text	00000000 .LVL81
00007694 l       .text	00000000 .LVL102
0000767e l       .text	00000000 .LVL98
0000768e l       .text	00000000 .LVL100
00007572 l       .text	00000000 .LVL50
00007592 l       .text	00000000 .LVL53
00007816 l       .text	00000000 .LVL137
0000758e l       .text	00000000 .LVL52
00007784 l       .text	00000000 .LVL117
00007766 l       .text	00000000 .LVL114
00007776 l       .text	00000000 .LVL116
000077fe l       .text	00000000 .LVL133
00007802 l       .text	00000000 .LVL134
00007804 l       .text	00000000 .LVL135
0000780c l       .text	00000000 .LVL136
0000781c l       .text	00000000 .LVL139
0000781a l       .text	00000000 .LVL138
000077a2 l       .text	00000000 .LVL124
00007382 l       .text	00000000 .LVL0
00007384 l       .text	00000000 .LVL1
000073c6 l       .text	00000000 .LVL11
000073ea l       .text	00000000 .LVL17
000073f8 l       .text	00000000 .LVL22
000073f2 l       .text	00000000 .LVL20
00000619 l       .debug_info	00000000 .Ldebug_info0
00007382 l       .text	00000000 .Ltext0
0000741e l       .text	00000000 .Letext0
000073c0 l       .text	00000000 .LBB20
000073f0 l       .text	00000000 .LBB24
000074a4 l       .text	00000000 .LBB101
000074be l       .text	00000000 .LBB103
000074c8 l       .text	00000000 .LBB105
000074e4 l       .text	00000000 .LBB106
000075ba l       .text	00000000 .LBB119
000075c0 l       .text	00000000 .LBB121
000075c4 l       .text	00000000 .LBB122
000075ec l       .text	00000000 .LBB124
000075ec l       .text	00000000 .LBB126
0000767e l       .text	00000000 .LBB144
00007572 l       .text	00000000 .LBB149
0000758e l       .text	00000000 .LBB151
00007766 l       .text	00000000 .LBB153
00007804 l       .text	00000000 .LBB158
00000240 l       .debug_macro	00000000 .Ldebug_macro15
00000273 l       .debug_macro	00000000 .Ldebug_macro16
000002ea l       .debug_macro	00000000 .Ldebug_macro20
00000352 l       .debug_macro	00000000 .Ldebug_macro21
0000045d l       .debug_macro	00000000 .Ldebug_macro22
00000490 l       .debug_macro	00000000 .Ldebug_macro23
0000059c l       .debug_macro	00000000 .Ldebug_macro24
000006fc l       .debug_macro	00000000 .Ldebug_macro25
0000070c l       .debug_macro	00000000 .Ldebug_macro26
00000777 l       .debug_macro	00000000 .Ldebug_macro27
0000078d l       .debug_macro	00000000 .Ldebug_macro28
000007c2 l       .debug_macro	00000000 .Ldebug_macro31
00000a4a l       .debug_macro	00000000 .Ldebug_macro32
00000a6c l       .debug_macro	00000000 .Ldebug_macro33
00000000 l    df *ABS*	00000000 crtatmega328.o
00000000 l       .debug_abbrev	00000000 .Ldebug_abbrev0
00000000 l       .debug_str	00000000 .Lproducer
00000000 l       .debug_line	00000000 .Ldebug_line0
0000000f l       .debug_str	00000000 .Luint8_t_name
00000017 l       .debug_str	00000000 .Luint16_t_name
00000020 l       .debug_str	00000000 .Lname6
00000029 l       .debug_str	00000000 .Lname7
0000002e l       .debug_str	00000000 .Lname8
00000035 l       .debug_str	00000000 .Lname9
0000003c l       .debug_str	00000000 .Lname10
00000043 l       .debug_str	00000000 .Lname11
00000049 l       .debug_str	00000000 .Lname12
0000004f l       .debug_str	00000000 .Lname13
00000054 l       .debug_str	00000000 .Lname14
00000059 l       .debug_str	00000000 .Lname15
0000005e l       .debug_str	00000000 .Lname16
00000063 l       .debug_str	00000000 .Lname17
00000068 l       .debug_str	00000000 .Lname18
0000006f l       .debug_str	00000000 .Lname19
00000075 l       .debug_str	00000000 .Lname20
0000007c l       .debug_str	00000000 .Lname21
00000083 l       .debug_str	00000000 .Lname22
0000008a l       .debug_str	00000000 .Lname23
00000090 l       .debug_str	00000000 .Lname24
00000096 l       .debug_str	00000000 .Lname25
0000009c l       .debug_str	00000000 .Lname26
000000a1 l       .debug_str	00000000 .Lname27
000000a7 l       .debug_str	00000000 .Lname28
000000ae l       .debug_str	00000000 .Lname29
000000b4 l       .debug_str	00000000 .Lname30
000000bb l       .debug_str	00000000 .Lname31
000000c2 l       .debug_str	00000000 .Lname32
000000c8 l       .debug_str	00000000 .Lname33
000000ce l       .debug_str	00000000 .Lname34
000000d4 l       .debug_str	00000000 .Lname35
000000d9 l       .debug_str	00000000 .Lname36
000000df l       .debug_str	00000000 .Lname37
000000e5 l       .debug_str	00000000 .Lname38
000000e9 l       .debug_str	00000000 .Lname39
000000f0 l       .debug_str	00000000 .Lname40
000000f7 l       .debug_str	00000000 .Lname41
000000fd l       .debug_str	00000000 .Lname42
00000102 l       .debug_str	00000000 .Lname43
00000108 l       .debug_str	00000000 .Lname44
0000010e l       .debug_str	00000000 .Lname45
00000113 l       .debug_str	00000000 .Lname46
00000118 l       .debug_str	00000000 .Lname47
0000011e l       .debug_str	00000000 .Lname48
00000123 l       .debug_str	00000000 .Lname49
00000128 l       .debug_str	00000000 .Lname50
0000012e l       .debug_str	00000000 .Lname51
00000133 l       .debug_str	00000000 .Lname52
00000138 l       .debug_str	00000000 .Lname53
0000013e l       .debug_str	00000000 .Lname54
00000144 l       .debug_str	00000000 .Lname55
0000014a l       .debug_str	00000000 .Lname56
00000151 l       .debug_str	00000000 .Lname57
00000158 l       .debug_str	00000000 .Lname58
0000015f l       .debug_str	00000000 .Lname59
00000165 l       .debug_str	00000000 .Lname60
0000016b l       .debug_str	00000000 .Lname61
00000171 l       .debug_str	00000000 .Lname62
00000177 l       .debug_str	00000000 .Lname63
0000017c l       .debug_str	00000000 .Lname64
00000182 l       .debug_str	00000000 .Lname65
00000189 l       .debug_str	00000000 .Lname66
00000190 l       .debug_str	00000000 .Lname67
00000197 l       .debug_str	00000000 .Lname68
0000019d l       .debug_str	00000000 .Lname69
000001a2 l       .debug_str	00000000 .Lname70
000001a7 l       .debug_str	00000000 .Lname71
000001ac l       .debug_str	00000000 .Lname72
000001b3 l       .debug_str	00000000 .Lname73
000001b8 l       .debug_str	00000000 .Lname74
000001bd l       .debug_str	00000000 .Lname75
000001c2 l       .debug_str	00000000 .Lname76
000001c6 l       .debug_str	00000000 .Lname77
000001cd l       .debug_str	00000000 .Lname78
000001d3 l       .debug_str	00000000 .Lname79
000001d8 l       .debug_str	00000000 .Lname80
000001db l       .debug_str	00000000 .Lname81
000001e2 l       .debug_str	00000000 .Lname82
000001e8 l       .debug_str	00000000 .Lname83
000001ee l       .debug_str	00000000 .Lname84
000001f3 l       .debug_str	00000000 .Lname85
000001fa l       .debug_str	00000000 .Lname86
00000201 l       .debug_str	00000000 .Lname87
00000000 l    df *ABS*	00000000 _copy_data.o
000070fc l       .text	00000000 .Loc.0
000070fe l       .text	00000000 .Loc.1
00007100 l       .text	00000000 .Loc.2
00007102 l       .text	00000000 .Loc.3
00007104 l       .text	00000000 .Loc.4
00007106 l       .text	00000000 .Loc.5
00007108 l       .text	00000000 .Loc.6
0000710a l       .text	00000000 .Loc.7
0000710c l       .text	00000000 .Loc.8
0000710e l       .text	00000000 .Loc.9
00007110 l       .text	00000000 .Loc.10
00007112 l       .text	00000000 L0
000070fc l       .text	00000000 L0
00007112 l       .text	00000000 L0
0000710c l       .text	00000000 .L__do_copy_data_start
00007108 l       .text	00000000 .L__do_copy_data_loop
00000000 l    df *ABS*	00000000 _clear_bss.o
00007112 l       .text	00000000 .Loc.0
00007114 l       .text	00000000 .Loc.1
00007116 l       .text	00000000 .Loc.2
00007118 l       .text	00000000 .Loc.3
0000711c l       .text	00000000 .do_clear_bss_start
0000711a l       .text	00000000 .do_clear_bss_loop
0000711a l       .text	00000000 .Loc.4
0000711c l       .text	00000000 .Loc.5
0000711e l       .text	00000000 .Loc.6
00007120 l       .text	00000000 .Loc.7
00007122 l       .text	00000000 L0
00007112 l       .text	00000000 L0
00007122 l       .text	00000000 L0
00000000 l    df *ABS*	00000000 usbdrvasm.o
00007128 l       .text	00000000 .Loc.0
0000712a l       .text	00000000 .Loc.1
0000712c l       .text	00000000 .Loc.2
0000712e l       .text	00000000 .Loc.3
00007130 l       .text	00000000 .Loc.4
00007132 l       .text	00000000 .Loc.5
00007134 l       .text	00000000 .Loc.6
00007136 l       .text	00000000 .Loc.7
00007138 l       .text	00000000 .Loc.8
0000714c l       .text	00000000 usbCrcLoopEntry
0000713a l       .text	00000000 usbCrcByteLoop
0000713a l       .text	00000000 .Loc.9
0000713c l       .text	00000000 .Loc.10
0000713e l       .text	00000000 usbCrcBitLoop
0000713e l       .text	00000000 .Loc.11
00007140 l       .text	00000000 .Loc.12
00007142 l       .text	00000000 .Loc.13
00007148 l       .text	00000000 usbCrcNoXor
00007144 l       .text	00000000 .Loc.14
00007146 l       .text	00000000 .Loc.15
00007148 l       .text	00000000 .Loc.16
0000714a l       .text	00000000 .Loc.17
0000714c l       .text	00000000 .Loc.18
0000714e l       .text	00000000 .Loc.19
00007150 l       .text	00000000 usbCrcReady
00007150 l       .text	00000000 .Loc.20
00007152 l       .text	00000000 .Loc.21
00007154 l       .text	00000000 .Loc.22
00007156 l       .text	00000000 .Loc.23
00007158 l       .text	00000000 .Loc.24
0000715a l       .text	00000000 .Loc.25
0000715c l       .text	00000000 .Loc.26
0000715e l       .text	00000000 .Loc.27
00007160 l       .text	00000000 .Loc.28
00007162 l       .text	00000000 waitForJ
00007162 l       .text	00000000 .Loc.29
00007164 l       .text	00000000 .Loc.30
00007166 l       .text	00000000 .Loc.31
00007168 l       .text	00000000 waitForK
00007168 l       .text	00000000 .Loc.32
0000716a l       .text	00000000 .Loc.33
00007182 l       .text	00000000 foundK
0000716c l       .text	00000000 .Loc.34
0000716e l       .text	00000000 .Loc.35
00007170 l       .text	00000000 .Loc.36
00007172 l       .text	00000000 .Loc.37
00007174 l       .text	00000000 .Loc.38
00007176 l       .text	00000000 .Loc.39
00007178 l       .text	00000000 .Loc.40
0000717a l       .text	00000000 .Loc.41
0000717c l       .text	00000000 .Loc.42
0000717e l       .text	00000000 .Loc.43
00007180 l       .text	00000000 .Loc.44
00007294 l       .text	00000000 sofError
00007182 l       .text	00000000 .Loc.45
00007184 l       .text	00000000 .Loc.46
00007188 l       .text	00000000 .Loc.47
0000718a l       .text	00000000 .Loc.48
0000718c l       .text	00000000 .Loc.49
0000718e l       .text	00000000 .Loc.50
00007190 l       .text	00000000 .Loc.51
00007192 l       .text	00000000 .Loc.52
00007194 l       .text	00000000 .Loc.53
0000719c l       .text	00000000 haveTwoBitsK
00007196 l       .text	00000000 .Loc.54
00007198 l       .text	00000000 .Loc.55
0000719a l       .text	00000000 .Loc.56
0000719c l       .text	00000000 .Loc.57
0000719e l       .text	00000000 .Loc.58
000071a0 l       .text	00000000 .Loc.59
000071a2 l       .text	00000000 .Loc.60
000071a4 l       .text	00000000 .Loc.61
000071a6 l       .text	00000000 .Loc.62
000071a8 l       .text	00000000 .Loc.63
000071aa l       .text	00000000 .Loc.64
000071ac l       .text	00000000 .Loc.65
000071ae l       .text	00000000 .Loc.66
000071b0 l       .text	00000000 .Loc.67
000071b2 l       .text	00000000 .Loc.68
000071b4 l       .text	00000000 .Loc.69
000071b6 l       .text	00000000 .Loc.70
0000722a l       .text	00000000 rxbit1
000071b8 l       .text	00000000 unstuff6
000071b8 l       .text	00000000 .Loc.71
000071ba l       .text	00000000 .Loc.72
000071bc l       .text	00000000 .Loc.73
000071be l       .text	00000000 .Loc.74
000071c0 l       .text	00000000 .Loc.75
000071c2 l       .text	00000000 .Loc.76
00007200 l       .text	00000000 didUnstuff6
000071c4 l       .text	00000000 unstuff7
000071c4 l       .text	00000000 .Loc.77
000071c6 l       .text	00000000 .Loc.78
000071c8 l       .text	00000000 .Loc.79
000071ca l       .text	00000000 .Loc.80
000071cc l       .text	00000000 .Loc.81
000071ce l       .text	00000000 .Loc.82
0000720e l       .text	00000000 didUnstuff7
000071d0 l       .text	00000000 unstuffEven
000071d0 l       .text	00000000 .Loc.83
000071d2 l       .text	00000000 .Loc.84
000071d4 l       .text	00000000 .Loc.85
000071d6 l       .text	00000000 .Loc.86
000071d8 l       .text	00000000 .Loc.87
0000724e l       .text	00000000 se0
000071da l       .text	00000000 .Loc.88
000071dc l       .text	00000000 .Loc.89
000071de l       .text	00000000 L0
000071de l       .text	00000000 .Loc.90
00007226 l       .text	00000000 didUnstuffE
000071e0 l       .text	00000000 unstuffOdd
000071e0 l       .text	00000000 .Loc.91
000071e2 l       .text	00000000 .Loc.92
000071e4 l       .text	00000000 .Loc.93
000071e6 l       .text	00000000 .Loc.94
000071e8 l       .text	00000000 .Loc.95
000071ea l       .text	00000000 .Loc.96
000071ec l       .text	00000000 .Loc.97
000071ee l       .text	00000000 L0
000071ee l       .text	00000000 .Loc.98
0000723a l       .text	00000000 didUnstuffO
000071f0 l       .text	00000000 rxByteLoop
000071f0 l       .text	00000000 .Loc.99
000071f2 l       .text	00000000 .Loc.100
000071f4 l       .text	00000000 .Loc.101
000071f6 l       .text	00000000 .Loc.102
000071fc l       .text	00000000 skipLeap
000071f8 l       .text	00000000 .Loc.103
000071fa l       .text	00000000 .Loc.104
000071fc l       .text	00000000 .Loc.105
000071fe l       .text	00000000 .Loc.106
00007200 l       .text	00000000 .Loc.107
00007202 l       .text	00000000 .Loc.108
00007204 l       .text	00000000 .Loc.109
00007206 l       .text	00000000 .Loc.110
00007208 l       .text	00000000 .Loc.111
0000720a l       .text	00000000 .Loc.112
0000720c l       .text	00000000 .Loc.113
0000720e l       .text	00000000 .Loc.114
00007210 l       .text	00000000 .Loc.115
00007212 l       .text	00000000 .Loc.116
00007214 l       .text	00000000 .Loc.117
00007216 l       .text	00000000 rxBitLoop
00007216 l       .text	00000000 .Loc.118
00007218 l       .text	00000000 .Loc.119
0000721a l       .text	00000000 .Loc.120
0000721c l       .text	00000000 .Loc.121
0000721e l       .text	00000000 .Loc.122
00007220 l       .text	00000000 .Loc.123
00007222 l       .text	00000000 .Loc.124
00007224 l       .text	00000000 .Loc.125
00007226 l       .text	00000000 .Loc.126
00007228 l       .text	00000000 .Loc.127
0000722a l       .text	00000000 .Loc.128
0000722c l       .text	00000000 .Loc.129
0000722e l       .text	00000000 .Loc.130
00007230 l       .text	00000000 .Loc.131
00007232 l       .text	00000000 .Loc.132
00007234 l       .text	00000000 .Loc.133
00007236 l       .text	00000000 .Loc.134
00007238 l       .text	00000000 .Loc.135
0000723a l       .text	00000000 .Loc.136
0000723c l       .text	00000000 .Loc.137
0000723e l       .text	00000000 .Loc.138
00007240 l       .text	00000000 .Loc.139
00007242 l       .text	00000000 .Loc.140
00007244 l       .text	00000000 .Loc.141
00007246 l       .text	00000000 overflow
00007246 l       .text	00000000 .Loc.142
00007248 l       .text	00000000 .Loc.143
0000724a l       .text	00000000 ignorePacket
0000724a l       .text	00000000 .Loc.144
0000724c l       .text	00000000 .Loc.145
0000727c l       .text	00000000 storeTokenAndReturn
0000724e l       .text	00000000 .Loc.146
00007250 l       .text	00000000 .Loc.147
00007252 l       .text	00000000 .Loc.148
00007254 l       .text	00000000 .Loc.149
00007256 l       .text	00000000 .Loc.150
00007258 l       .text	00000000 .Loc.151
0000725a l       .text	00000000 .Loc.152
0000725c l       .text	00000000 .Loc.153
0000725e l       .text	00000000 .Loc.154
0000729e l       .text	00000000 handleData
00007260 l       .text	00000000 .Loc.155
00007262 l       .text	00000000 .Loc.156
00007264 l       .text	00000000 .Loc.157
00007268 l       .text	00000000 .Loc.158
0000726a l       .text	00000000 .Loc.159
0000726c l       .text	00000000 .Loc.160
0000726e l       .text	00000000 .Loc.161
00007270 l       .text	00000000 .Loc.162
00007272 l       .text	00000000 .Loc.163
000072c8 l       .text	00000000 handleIn
00007274 l       .text	00000000 .Loc.164
00007276 l       .text	00000000 .Loc.165
0000727c l       .text	00000000 handleSetupOrOut
00007278 l       .text	00000000 .Loc.166
0000727a l       .text	00000000 .Loc.167
0000727c l       .text	00000000 .Loc.168
00007280 l       .text	00000000 doReturn
00007280 l       .text	00000000 .Loc.169
0000728e l       .text	00000000 .Loc.170
00007290 l       .text	00000000 .Loc.171
00007292 l       .text	00000000 .Loc.172
00007294 l       .text	00000000 .Loc.173
0000729c l       .text	00000000 .Loc.174
0000729e l       .text	00000000 .Loc.175
000072a2 l       .text	00000000 .Loc.176
000072a4 l       .text	00000000 .Loc.177
000072a6 l       .text	00000000 .Loc.178
000072aa l       .text	00000000 .Loc.179
000072ac l       .text	00000000 .Loc.180
000072fc l       .text	00000000 sendNakAndReti
000072ae l       .text	00000000 .Loc.181
000072b0 l       .text	00000000 .Loc.182
00007300 l       .text	00000000 sendAckAndReti
000072b2 l       .text	00000000 .Loc.183
000072b6 l       .text	00000000 .Loc.184
000072ba l       .text	00000000 .Loc.185
000072be l       .text	00000000 .Loc.186
000072c0 l       .text	00000000 .Loc.187
000072c2 l       .text	00000000 .Loc.188
000072c6 l       .text	00000000 .Loc.189
000072c8 l       .text	00000000 .Loc.190
000072cc l       .text	00000000 .Loc.191
000072ce l       .text	00000000 .Loc.192
000072d0 l       .text	00000000 .Loc.193
000072d2 l       .text	00000000 .Loc.194
000072d6 l       .text	00000000 .Loc.195
000072d8 l       .text	00000000 .Loc.196
00007302 l       .text	00000000 sendCntAndReti
000072da l       .text	00000000 .Loc.197
000072de l       .text	00000000 .Loc.198
000072e0 l       .text	00000000 .Loc.199
000072e2 l       .text	00000000 .Loc.200
0000730a l       .text	00000000 usbSendAndReti
000072e4 l       .text	00000000 bitstuffN
000072e4 l       .text	00000000 .Loc.201
000072e6 l       .text	00000000 .Loc.202
000072e8 l       .text	00000000 .Loc.203
000072ea l       .text	00000000 L0
000072ea l       .text	00000000 .Loc.204
000072ec l       .text	00000000 .Loc.205
000072ee l       .text	00000000 .Loc.206
00007324 l       .text	00000000 didStuffN
000072f0 l       .text	00000000 bitstuff6
000072f0 l       .text	00000000 .Loc.207
000072f2 l       .text	00000000 .Loc.208
000072f4 l       .text	00000000 .Loc.209
000072f6 l       .text	00000000 .Loc.210
00007332 l       .text	00000000 didStuff6
000072f8 l       .text	00000000 bitstuff7
000072f8 l       .text	00000000 .Loc.211
000072fa l       .text	00000000 .Loc.212
0000733e l       .text	00000000 didStuff7
000072fc l       .text	00000000 .Loc.213
000072fe l       .text	00000000 .Loc.214
00007304 l       .text	00000000 sendX3AndReti
00007300 l       .text	00000000 .Loc.215
00007302 l       .text	00000000 .Loc.216
00007304 l       .text	00000000 .Loc.217
00007306 l       .text	00000000 .Loc.218
00007308 l       .text	00000000 .Loc.219
0000730a l       .text	00000000 .Loc.220
0000730c l       .text	00000000 .Loc.221
0000730e l       .text	00000000 .Loc.222
00007310 l       .text	00000000 .Loc.223
00007312 l       .text	00000000 .Loc.224
00007314 l       .text	00000000 .Loc.225
00007316 l       .text	00000000 .Loc.226
00007318 l       .text	00000000 txByteLoop
00007318 l       .text	00000000 .Loc.227
0000731a l       .text	00000000 txBitLoop
0000731a l       .text	00000000 .Loc.228
0000731c l       .text	00000000 .Loc.229
0000731e l       .text	00000000 .Loc.230
00007320 l       .text	00000000 .Loc.231
00007322 l       .text	00000000 .Loc.232
00007324 l       .text	00000000 .Loc.233
00007326 l       .text	00000000 .Loc.234
00007328 l       .text	00000000 .Loc.235
0000732a l       .text	00000000 .Loc.236
0000732c l       .text	00000000 .Loc.237
0000732e l       .text	00000000 .Loc.238
00007330 l       .text	00000000 .Loc.239
00007332 l       .text	00000000 .Loc.240
00007334 l       .text	00000000 .Loc.241
00007336 l       .text	00000000 .Loc.242
00007338 l       .text	00000000 .Loc.243
0000733a l       .text	00000000 .Loc.244
0000733c l       .text	00000000 .Loc.245
0000733e l       .text	00000000 .Loc.246
00007340 l       .text	00000000 .Loc.247
00007342 l       .text	00000000 .Loc.248
00007344 l       .text	00000000 .Loc.249
00007346 l       .text	00000000 .Loc.250
00007348 l       .text	00000000 .Loc.251
0000734a l       .text	00000000 .Loc.252
0000734c l       .text	00000000 .Loc.253
0000734e l       .text	00000000 .Loc.254
00007350 l       .text	00000000 .Loc.255
00007352 l       .text	00000000 .Loc.256
00007354 l       .text	00000000 .Loc.257
00007358 l       .text	00000000 .Loc.258
0000735a l       .text	00000000 .Loc.259
0000735c l       .text	00000000 .Loc.260
0000735e l       .text	00000000 .Loc.261
00007360 l       .text	00000000 .Loc.262
00007366 l       .text	00000000 skipAddrAssign
00007362 l       .text	00000000 .Loc.263
00007366 l       .text	00000000 .Loc.264
00007368 l       .text	00000000 .Loc.265
0000736a l       .text	00000000 .Loc.266
0000736c l       .text	00000000 .Loc.267
0000736e l       .text	00000000 .Loc.268
00007370 l       .text	00000000 .Loc.269
00007372 l       .text	00000000 .Loc.270
00007374 l       .text	00000000 .Loc.271
00007376 l       .text	00000000 se0Delay
00007376 l       .text	00000000 .Loc.272
00007378 l       .text	00000000 .Loc.273
0000737a l       .text	00000000 .Loc.274
0000737c l       .text	00000000 .Loc.275
0000737e l       .text	00000000 .Loc.276
00007380 l       .text	00000000 .Loc.277
00007382 l       .text	00000000 L0
00007128 l       .text	00000000 L0
00007382 l       .text	00000000 L0
00000000 l    df *ABS*	00000000 eerd_byte.o
00007856 l       .text	00000000 .L11
00000000 l    df *ABS*	00000000 eewr_byte.o
00007868 l       .text	00000000 .L11
00000000 l    df *ABS*	00000000 _exit.o
00007882 l       .text	00000000 .Loc.0
00007884 l       .text	00000000 __stop_program
00007884 l       .text	00000000 .Loc.1
00007886 l       .text	00000000 L0
00007882 l       .text	00000000 L0
00007886 l       .text	00000000 L0
00007098 g     O .text	00000012 usbDescriptorDevice
00007126  w      .text	00000000 __vector_22
00007868 g       .text	00000000 eeprom_write_r18
0000715a g     F .text	00000000 __vector_1
00800108 g     O .bss	0000000b usbTxBuf
00000000 g       *ABS*	00000000 nullVector
0000ffa0 g       *ABS*	00000000 __DATA_REGION_LENGTH__
00007086 g       .text	00000000 __trampolines_start
00007886 g       .text	00000000 _etext
000070d4 g     O .text	00000004 usbDescriptorString0
00007126  w      .text	00000000 __vector_24
00007126  w      .text	00000000 __vector_12
00007126 g       .text	00000000 __bad_interrupt
0000788c g       *ABS*	00000000 __data_load_end
00007126  w      .text	00000000 __vector_6
00007128 g       .text	00000000 usbCrc16
00007086 g       .text	00000000 __trampolines_end
00007126  w      .text	00000000 __vector_3
000070e4 g     F .text	00000018 __BOOTLOADERENTRY_FROMSOFTWARE__bootup_investigate_RAMEND
00007126  w      .text	00000000 __vector_23
00007886 g       *ABS*	00000000 __data_load_start
000070d8 g       .text	00000000 __dtors_end
0080013b g       .bss	00000000 __bss_end
00000400 g       *ABS*	00000000 __LOCK_REGION_LENGTH__
00007126  w      .text	00000000 __vector_25
00007068 g     O .text	0000001e bootloader__do_spm
00007866 g     F .text	0000001c eeprom_write_byte
00007126  w      .text	00000000 __vector_11
000070d8  w      .text	00000000 __init
00007126  w      .text	00000000 __vector_13
00007152 g       .text	00000000 usbCrc16Append
00007126  w      .text	00000000 __vector_17
00007126  w      .text	00000000 __vector_19
00007126  w      .text	00000000 __vector_7
00007086 g     O .text	00000012 usbDescriptorConfiguration
00007112 g       .text	00000010 .hidden __do_clear_bss
00800118 g     O .bss	00000001 usbDeviceAddr
00810000 g       .comment	00000000 __eeprom_end
00800113 g     O .bss	00000001 usbRxToken
00007000 g       .text	00000000 __vectors
00007856 g     F .text	00000010 eeprom_read_byte
00800106 g       .data	00000000 __data_end
000070b8 g     O .text	0000001c usbDescriptorStringVendor
00800119 g     O .bss	00000001 usbInputBufOffset
00007000  w      .text	00000000 __vector_default
00007126  w      .text	00000000 __vector_5
00000400 g       *ABS*	00000000 __SIGNATURE_REGION_LENGTH__
000070d8 g       .text	00000000 __ctors_start
000070fc g       .text	00000016 .hidden __do_copy_data
00007382 g     F .text	0000009c usbFunctionSetup_USBASP_FUNC_TRANSMIT
00800106 g       .bss	00000000 __bss_start
0000741e g     F .text	00000438 main
00007126  w      .text	00000000 __vector_4
00800060 g       *ABS*	00000000 __DATA_REGION_ORIGIN__
00800101 g     O .data	00000001 usbTxLen
00000000  w      *ABS*	00000000 __heap_end
00007126  w      .text	00000000 __vector_9
00007126  w      .text	00000000 __vector_2
00000400 g       *ABS*	00000000 __USER_SIGNATURE_REGION_LENGTH__
00800106 g     O .bss	00000002 usbMsgPtr
00007126  w      .text	00000000 __vector_21
00007126  w      .text	00000000 __vector_15
00800115 g     O .bss	00000001 usbRxLen
000070d8 g       .text	00000000 __dtors_start
000070d8 g       .text	00000000 __ctors_end
000008ff  w      *ABS*	00000000 __stack
00800117 g     O .bss	00000001 usbNewDeviceAddr
00800106 g       .data	00000000 _edata
0080013d g       .noinit	00000000 _end
00007126  w      .text	00000000 __vector_8
00007882  w      .text	00000000 .hidden exit
00800114 g     O .bss	00000001 usbCurrentTok
000070aa g     O .text	0000000e usbDescriptorStringDevice
00010000 g       *ABS*	00000000 __EEPROM_REGION_LENGTH__
00007882 g       .text	00000000 .hidden _exit
00800116 g     O .bss	00000001 usbConfiguration
00007126  w      .text	00000000 __vector_14
00007126  w      .text	00000000 __vector_10
0080011a g     O .bss	00000016 usbRxBuf
00007126  w      .text	00000000 __vector_16
00800100 g       .data	00000000 __data_start
00007126  w      .text	00000000 __vector_18
00000003 g       *ABS*	00000000 __FUSE_REGION_LENGTH__
00020000 g       *ABS*	00000000 __TEXT_REGION_LENGTH__
00007126  w      .text	00000000 __vector_20



Disassembly of section .text:

00007000 <__vectors>:
    7000:	6b c0       	rjmp	.+214    	; 0x70d8 <__ctors_end>
    7002:	00 00       	nop
    7004:	aa c0       	rjmp	.+340    	; 0x715a <__vector_1>
    7006:	00 00       	nop
    7008:	8e c0       	rjmp	.+284    	; 0x7126 <__bad_interrupt>
    700a:	00 00       	nop
    700c:	8c c0       	rjmp	.+280    	; 0x7126 <__bad_interrupt>
    700e:	00 00       	nop
    7010:	8a c0       	rjmp	.+276    	; 0x7126 <__bad_interrupt>
    7012:	00 00       	nop
    7014:	88 c0       	rjmp	.+272    	; 0x7126 <__bad_interrupt>
    7016:	00 00       	nop
    7018:	86 c0       	rjmp	.+268    	; 0x7126 <__bad_interrupt>
    701a:	00 00       	nop
    701c:	84 c0       	rjmp	.+264    	; 0x7126 <__bad_interrupt>
    701e:	00 00       	nop
    7020:	82 c0       	rjmp	.+260    	; 0x7126 <__bad_interrupt>
    7022:	00 00       	nop
    7024:	80 c0       	rjmp	.+256    	; 0x7126 <__bad_interrupt>
    7026:	00 00       	nop
    7028:	7e c0       	rjmp	.+252    	; 0x7126 <__bad_interrupt>
    702a:	00 00       	nop
    702c:	7c c0       	rjmp	.+248    	; 0x7126 <__bad_interrupt>
    702e:	00 00       	nop
    7030:	7a c0       	rjmp	.+244    	; 0x7126 <__bad_interrupt>
    7032:	00 00       	nop
    7034:	78 c0       	rjmp	.+240    	; 0x7126 <__bad_interrupt>
    7036:	00 00       	nop
    7038:	76 c0       	rjmp	.+236    	; 0x7126 <__bad_interrupt>
    703a:	00 00       	nop
    703c:	74 c0       	rjmp	.+232    	; 0x7126 <__bad_interrupt>
    703e:	00 00       	nop
    7040:	72 c0       	rjmp	.+228    	; 0x7126 <__bad_interrupt>
    7042:	00 00       	nop
    7044:	70 c0       	rjmp	.+224    	; 0x7126 <__bad_interrupt>
    7046:	00 00       	nop
    7048:	6e c0       	rjmp	.+220    	; 0x7126 <__bad_interrupt>
    704a:	00 00       	nop
    704c:	6c c0       	rjmp	.+216    	; 0x7126 <__bad_interrupt>
    704e:	00 00       	nop
    7050:	6a c0       	rjmp	.+212    	; 0x7126 <__bad_interrupt>
    7052:	00 00       	nop
    7054:	68 c0       	rjmp	.+208    	; 0x7126 <__bad_interrupt>
    7056:	00 00       	nop
    7058:	66 c0       	rjmp	.+204    	; 0x7126 <__bad_interrupt>
    705a:	00 00       	nop
    705c:	64 c0       	rjmp	.+200    	; 0x7126 <__bad_interrupt>
    705e:	00 00       	nop
    7060:	62 c0       	rjmp	.+196    	; 0x7126 <__bad_interrupt>
    7062:	00 00       	nop
    7064:	60 c0       	rjmp	.+192    	; 0x7126 <__bad_interrupt>
	...

00007068 <bootloader__do_spm>:
    7068:	ec 2d fd 2d b7 b6 b0 fc fd cf 27 bf e8 95 b7 b6     .-.-......'.....
    7078:	b0 fc fd cf 21 e1 b7 b6 b6 fc f4 cf 08 95           ....!.........

00007086 <usbDescriptorConfiguration>:
    7086:	09 02 12 00 01 01 00 80 32 09 04 00 00 00 00 00     ........2.......
	...

00007098 <usbDescriptorDevice>:
    7098:	12 01 10 01 ff 00 00 08 c0 16 dc 05 02 01 01 02     ................
    70a8:	00 01                                               ..

000070aa <usbDescriptorStringDevice>:
    70aa:	0e 03 55 00 53 00 42 00 61 00 73 00 70 00           ..U.S.B.a.s.p.

000070b8 <usbDescriptorStringVendor>:
    70b8:	1c 03 77 00 77 00 77 00 2e 00 66 00 69 00 73 00     ..w.w.w...f.i.s.
    70c8:	63 00 68 00 6c 00 2e 00 64 00 65 00                 c.h.l...d.e.

000070d4 <usbDescriptorString0>:
    70d4:	04 03 09 04                                         ....

000070d8 <__ctors_end>:
    70d8:	11 24       	eor	r1, r1
    70da:	1f be       	out	0x3f, r1	; 63
    70dc:	cf ef       	ldi	r28, 0xFF	; 255
    70de:	d8 e0       	ldi	r29, 0x08	; 8
    70e0:	de bf       	out	0x3e, r29	; 62
    70e2:	cd bf       	out	0x3d, r28	; 61

000070e4 <__BOOTLOADERENTRY_FROMSOFTWARE__bootup_investigate_RAMEND>:
/* ------------------------------------------------------------------------ */

#if (HAVE_BOOTLOADERENTRY_FROMSOFTWARE)
void __attribute__ ((section(".init3"),naked,used,no_instrument_function)) __BOOTLOADERENTRY_FROMSOFTWARE__bootup_investigate_RAMEND(void);
void __BOOTLOADERENTRY_FROMSOFTWARE__bootup_investigate_RAMEND(void) {
  asm volatile (
    70e4:	24 b7       	in	r18, 0x34	; 52
    70e6:	d8 e0       	ldi	r29, 0x08	; 8
    70e8:	ce ef       	ldi	r28, 0xFE	; 254
    70ea:	39 91       	ld	r19, Y+
    70ec:	38 33       	cpi	r19, 0x38	; 56
    70ee:	39 91       	ld	r19, Y+
    70f0:	09 f0       	breq	.+2      	; 0x70f4 <__BOOTLOADERENTRY_FROMSOFTWARE__bootup_investigate_RAMEND_done6>

000070f2 <__BOOTLOADERENTRY_FROMSOFTWARE__bootup_investigate_RAMEND_mismatch6>:
    70f2:	3f ef       	ldi	r19, 0xFF	; 255

000070f4 <__BOOTLOADERENTRY_FROMSOFTWARE__bootup_investigate_RAMEND_done6>:
    70f4:	30 93 3c 01 	sts	0x013C, r19	; 0x80013c <__BOOTLOADERENTRY_FROMSOFTWARE__bootup_RAMEND_doesmatch>
    70f8:	20 93 3b 01 	sts	0x013B, r18	; 0x80013b <__BOOTLOADERENTRY_FROMSOFTWARE__bootup_MCUCSR>

000070fc <__do_copy_data>:
    70fc:	11 e0       	ldi	r17, 0x01	; 1

000070fe <.Loc.1>:
    70fe:	a0 e0       	ldi	r26, 0x00	; 0

00007100 <.Loc.2>:
    7100:	b1 e0       	ldi	r27, 0x01	; 1

00007102 <.Loc.3>:
    7102:	e6 e8       	ldi	r30, 0x86	; 134

00007104 <.Loc.4>:
    7104:	f8 e7       	ldi	r31, 0x78	; 120

00007106 <.Loc.5>:
    7106:	02 c0       	rjmp	.+4      	; 0x710c <.L__do_copy_data_start>

00007108 <.L__do_copy_data_loop>:
    7108:	05 90       	lpm	r0, Z+

0000710a <.Loc.7>:
    710a:	0d 92       	st	X+, r0

0000710c <.L__do_copy_data_start>:
    710c:	a6 30       	cpi	r26, 0x06	; 6

0000710e <.Loc.9>:
    710e:	b1 07       	cpc	r27, r17

00007110 <.Loc.10>:
    7110:	d9 f7       	brne	.-10     	; 0x7108 <.L__do_copy_data_loop>

00007112 <__do_clear_bss>:
    7112:	21 e0       	ldi	r18, 0x01	; 1

00007114 <.Loc.1>:
    7114:	a6 e0       	ldi	r26, 0x06	; 6

00007116 <.Loc.2>:
    7116:	b1 e0       	ldi	r27, 0x01	; 1

00007118 <.Loc.3>:
    7118:	01 c0       	rjmp	.+2      	; 0x711c <.Loc.5>

0000711a <.Loc.4>:
    711a:	1d 92       	st	X+, r1

0000711c <.Loc.5>:
    711c:	ab 33       	cpi	r26, 0x3B	; 59

0000711e <.Loc.6>:
    711e:	b2 07       	cpc	r27, r18

00007120 <.Loc.7>:
    7120:	e1 f7       	brne	.-8      	; 0x711a <.Loc.4>

00007122 <L0^A>:
    7122:	7d d1       	rcall	.+762    	; 0x741e <main>
    7124:	ae c3       	rjmp	.+1884   	; 0x7882 <_exit>

00007126 <__bad_interrupt>:
    7126:	6c cf       	rjmp	.-296    	; 0x7000 <__vectors>

00007128 <usbCrc16>:
;   poly    r20+r21
;   scratch r23
;   resCrc  r24+r25 / r16+r17
;   ptr     X / Z
usbCrc16:
    mov     ptrL, argPtrL
    7128:	a8 2f       	mov	r26, r24

0000712a <.Loc.1>:
    mov     ptrH, argPtrH
    712a:	b9 2f       	mov	r27, r25

0000712c <.Loc.2>:
    ldi     resCrcL, 0
    712c:	80 e0       	ldi	r24, 0x00	; 0

0000712e <.Loc.3>:
    ldi     resCrcH, 0
    712e:	90 e0       	ldi	r25, 0x00	; 0

00007130 <.Loc.4>:
    ldi     polyL, lo8(0xa001)
    7130:	41 e0       	ldi	r20, 0x01	; 1

00007132 <.Loc.5>:
    ldi     polyH, hi8(0xa001)
    7132:	50 ea       	ldi	r21, 0xA0	; 160

00007134 <.Loc.6>:
    com     argLen      ; argLen = -argLen - 1: modified loop to ensure that carry is set
    7134:	60 95       	com	r22

00007136 <.Loc.7>:
    ldi     bitCnt, 0   ; loop counter with starnd condition = end condition
    7136:	30 e0       	ldi	r19, 0x00	; 0

00007138 <.Loc.8>:
    rjmp    usbCrcLoopEntry
    7138:	09 c0       	rjmp	.+18     	; 0x714c <usbCrcLoopEntry>

0000713a <usbCrcByteLoop>:
usbCrcByteLoop:
    ld      byte, ptr+
    713a:	2d 91       	ld	r18, X+

0000713c <.Loc.10>:
    eor     resCrcL, byte
    713c:	82 27       	eor	r24, r18

0000713e <usbCrcBitLoop>:
usbCrcBitLoop:
    ror     resCrcH     ; carry is always set here (see brcs jumps to here)
    713e:	97 95       	ror	r25

00007140 <.Loc.12>:
    ror     resCrcL
    7140:	87 95       	ror	r24

00007142 <.Loc.13>:
    brcs    usbCrcNoXor
    7142:	10 f0       	brcs	.+4      	; 0x7148 <usbCrcNoXor>

00007144 <.Loc.14>:
    eor     resCrcL, polyL
    7144:	84 27       	eor	r24, r20

00007146 <.Loc.15>:
    eor     resCrcH, polyH
    7146:	95 27       	eor	r25, r21

00007148 <usbCrcNoXor>:
usbCrcNoXor:
    subi    bitCnt, 224 ; (8 * 224) % 256 = 0; this loop iterates 8 times
    7148:	30 5e       	subi	r19, 0xE0	; 224

0000714a <.Loc.17>:
    brcs    usbCrcBitLoop
    714a:	c8 f3       	brcs	.-14     	; 0x713e <usbCrcBitLoop>

0000714c <usbCrcLoopEntry>:
usbCrcLoopEntry:
    subi    argLen, -1
    714c:	6f 5f       	subi	r22, 0xFF	; 255

0000714e <.Loc.19>:
    brcs    usbCrcByteLoop
    714e:	a8 f3       	brcs	.-22     	; 0x713a <usbCrcByteLoop>

00007150 <usbCrcReady>:
usbCrcReady:
    ret
    7150:	08 95       	ret

00007152 <usbCrc16Append>:

#endif /* USB_USE_FAST_CRC */

; extern unsigned usbCrc16Append(unsigned char *data, unsigned char len);
usbCrc16Append:
    rcall   usbCrc16
    7152:	ea df       	rcall	.-44     	; 0x7128 <usbCrc16>

00007154 <.Loc.22>:
    st      ptr+, resCrcL
    7154:	8d 93       	st	X+, r24

00007156 <.Loc.23>:
    st      ptr+, resCrcH
    7156:	9d 93       	st	X+, r25

00007158 <.Loc.24>:
    ret
    7158:	08 95       	ret

0000715a <__vector_1>:
; Numbers in brackets are clocks counted from center of last sync bit
; when instruction starts

USB_INTR_VECTOR:
;order of registers pushed: YL, SREG YH, [sofError], bitcnt, shift, x1, x2, x3, x4, cnt
    push    YL                  ;[-25] push only what is necessary to sync with edge ASAP
    715a:	cf 93       	push	r28

0000715c <.Loc.26>:
    in      YL, SREG            ;[-23]
    715c:	cf b7       	in	r28, 0x3f	; 63

0000715e <.Loc.27>:
    push    YL                  ;[-22]
    715e:	cf 93       	push	r28

00007160 <.Loc.28>:
    push    YH                  ;[-20]
    7160:	df 93       	push	r29

00007162 <waitForJ>:
;sync up with J to K edge during sync pattern -- use fastest possible loops
;The first part waits at most 1 bit long since we must be in sync pattern.
;YL is guarenteed to be < 0x80 because I flag is clear. When we jump to
;waitForJ, ensure that this prerequisite is met.
waitForJ:
    inc     YL
    7162:	c3 95       	inc	r28

00007164 <.Loc.30>:
    sbis    USBIN, USBMINUS
    7164:	4b 9b       	sbis	0x09, 3	; 9

00007166 <.Loc.31>:
    brne    waitForJ        ; just make sure we have ANY timeout
    7166:	e9 f7       	brne	.-6      	; 0x7162 <waitForJ>

00007168 <waitForK>:
waitForK:
;The following code results in a sampling window of < 1/4 bit which meets the spec.
    sbis    USBIN, USBMINUS     ;[-15]
    7168:	4b 9b       	sbis	0x09, 3	; 9

0000716a <.Loc.33>:
    rjmp    foundK              ;[-14]
    716a:	0b c0       	rjmp	.+22     	; 0x7182 <foundK>

0000716c <.Loc.34>:
    sbis    USBIN, USBMINUS
    716c:	4b 9b       	sbis	0x09, 3	; 9

0000716e <.Loc.35>:
    rjmp    foundK
    716e:	09 c0       	rjmp	.+18     	; 0x7182 <foundK>

00007170 <.Loc.36>:
    sbis    USBIN, USBMINUS
    7170:	4b 9b       	sbis	0x09, 3	; 9

00007172 <.Loc.37>:
    rjmp    foundK
    7172:	07 c0       	rjmp	.+14     	; 0x7182 <foundK>

00007174 <.Loc.38>:
    sbis    USBIN, USBMINUS
    7174:	4b 9b       	sbis	0x09, 3	; 9

00007176 <.Loc.39>:
    rjmp    foundK
    7176:	05 c0       	rjmp	.+10     	; 0x7182 <foundK>

00007178 <.Loc.40>:
    sbis    USBIN, USBMINUS
    7178:	4b 9b       	sbis	0x09, 3	; 9

0000717a <.Loc.41>:
    rjmp    foundK
    717a:	03 c0       	rjmp	.+6      	; 0x7182 <foundK>

0000717c <.Loc.42>:
    sbis    USBIN, USBMINUS
    717c:	4b 9b       	sbis	0x09, 3	; 9

0000717e <.Loc.43>:
    rjmp    foundK
    717e:	01 c0       	rjmp	.+2      	; 0x7182 <foundK>

00007180 <.Loc.44>:
    sts     usbSofCount, YL
#endif  /* USB_COUNT_SOF */
#ifdef USB_SOF_HOOK
    USB_SOF_HOOK
#endif
    rjmp    sofError
    7180:	89 c0       	rjmp	.+274    	; 0x7294 <sofError>

00007182 <foundK>:
foundK:                         ;[-12]
;{3, 5} after falling D- edge, average delay: 4 cycles [we want 5 for center sampling]
;we have 1 bit time for setup purposes, then sample again. Numbers in brackets
;are cycles from center of first sync (double K) bit after the instruction
    push    bitcnt              ;[-12]
    7182:	6f 93       	push	r22

00007184 <.Loc.46>:
;   [---]                       ;[-11]
    lds     YL, usbInputBufOffset;[-10]
    7184:	c0 91 19 01 	lds	r28, 0x0119	; 0x800119 <usbInputBufOffset>

00007188 <.Loc.47>:
;   [---]                       ;[-9]
    clr     YH                  ;[-8]
    7188:	dd 27       	eor	r29, r29

0000718a <.Loc.48>:
    subi    YL, lo8(-(usbRxBuf));[-7] [rx loop init]
    718a:	c6 5e       	subi	r28, 0xE6	; 230

0000718c <.Loc.49>:
    sbci    YH, hi8(-(usbRxBuf));[-6] [rx loop init]
    718c:	de 4f       	sbci	r29, 0xFE	; 254

0000718e <.Loc.50>:
    push    shift               ;[-5]
    718e:	2f 93       	push	r18

00007190 <.Loc.51>:
;   [---]                       ;[-4]
    ldi     bitcnt, 0x55        ;[-3] [rx loop init]
    7190:	65 e5       	ldi	r22, 0x55	; 85

00007192 <.Loc.52>:
    sbis    USBIN, USBMINUS     ;[-2] we want two bits K (sample 2 cycles too early)
    7192:	4b 9b       	sbis	0x09, 3	; 9

00007194 <.Loc.53>:
    rjmp    haveTwoBitsK        ;[-1]
    7194:	03 c0       	rjmp	.+6      	; 0x719c <haveTwoBitsK>

00007196 <.Loc.54>:
    pop     shift               ;[0] undo the push from before
    7196:	2f 91       	pop	r18

00007198 <.Loc.55>:
    pop     bitcnt              ;[2] undo the push from before
    7198:	6f 91       	pop	r22

0000719a <.Loc.56>:
    rjmp    waitForK            ;[4] this was not the end of sync, retry
    719a:	e6 cf       	rjmp	.-52     	; 0x7168 <waitForK>

0000719c <haveTwoBitsK>:

;----------------------------------------------------------------------------
; push more registers and initialize values while we sample the first bits:
;----------------------------------------------------------------------------
haveTwoBitsK:
    push    x1              ;[1]
    719c:	0f 93       	push	r16

0000719e <.Loc.58>:
    push    x2              ;[3]
    719e:	1f 93       	push	r17

000071a0 <.Loc.59>:
    push    x3              ;[5]
    71a0:	4f 93       	push	r20

000071a2 <.Loc.60>:
    ldi     shift, 0        ;[7]
    71a2:	20 e0       	ldi	r18, 0x00	; 0

000071a4 <.Loc.61>:
    ldi     x3, 1<<4        ;[8] [rx loop init] first sample is inverse bit, compensate that
    71a4:	40 e1       	ldi	r20, 0x10	; 16

000071a6 <.Loc.62>:
    push    x4              ;[9] == leap
    71a6:	5f 93       	push	r21

000071a8 <.Loc.63>:

    in      x1, USBIN       ;[11] <-- sample bit 0
    71a8:	09 b1       	in	r16, 0x09	; 9

000071aa <.Loc.64>:
    andi    x1, USBMASK     ;[12]
    71aa:	0c 70       	andi	r16, 0x0C	; 12

000071ac <.Loc.65>:
    bst     x1, USBMINUS    ;[13]
    71ac:	03 fb       	bst	r16, 3

000071ae <.Loc.66>:
    bld     shift, 7        ;[14]
    71ae:	27 f9       	bld	r18, 7

000071b0 <.Loc.67>:
    push    cnt             ;[15]
    71b0:	3f 93       	push	r19

000071b2 <.Loc.68>:
    ldi     leap, 0         ;[17] [rx loop init]
    71b2:	50 e0       	ldi	r21, 0x00	; 0

000071b4 <.Loc.69>:
    ldi     cnt, USB_BUFSIZE;[18] [rx loop init]
    71b4:	3b e0       	ldi	r19, 0x0B	; 11

000071b6 <.Loc.70>:
    rjmp    rxbit1          ;[19] arrives at [21]
    71b6:	39 c0       	rjmp	.+114    	; 0x722a <rxbit1>

000071b8 <unstuff6>:

; duration of unstuffing code should be 10.66666667 cycles. We adjust "leap"
; accordingly to approximate this value in the long run.

unstuff6:
    andi    x2, USBMASK ;[03]
    71b8:	1c 70       	andi	r17, 0x0C	; 12

000071ba <.Loc.72>:
    ori     x3, 1<<6    ;[04] will not be shifted any more
    71ba:	40 64       	ori	r20, 0x40	; 64

000071bc <.Loc.73>:
    andi    shift, ~0x80;[05]
    71bc:	2f 77       	andi	r18, 0x7F	; 127

000071be <.Loc.74>:
    mov     x1, x2      ;[06] sampled bit 7 is actually re-sampled bit 6
    71be:	01 2f       	mov	r16, r17

000071c0 <.Loc.75>:
    subi    leap, -1    ;[07] total duration = 11 bits -> subtract 1/3
    71c0:	5f 5f       	subi	r21, 0xFF	; 255

000071c2 <.Loc.76>:
    rjmp    didUnstuff6 ;[08]
    71c2:	1e c0       	rjmp	.+60     	; 0x7200 <didUnstuff6>

000071c4 <unstuff7>:

unstuff7:
    ori     x3, 1<<7    ;[09] will not be shifted any more
    71c4:	40 68       	ori	r20, 0x80	; 128

000071c6 <.Loc.78>:
    in      x2, USBIN   ;[00] [10]  re-sample bit 7
    71c6:	19 b1       	in	r17, 0x09	; 9

000071c8 <.Loc.79>:
    andi    x2, USBMASK ;[01]
    71c8:	1c 70       	andi	r17, 0x0C	; 12

000071ca <.Loc.80>:
    andi    shift, ~0x80;[02]
    71ca:	2f 77       	andi	r18, 0x7F	; 127

000071cc <.Loc.81>:
    subi    leap, 2     ;[03] total duration = 10 bits -> add 1/3
    71cc:	52 50       	subi	r21, 0x02	; 2

000071ce <.Loc.82>:
    rjmp    didUnstuff7 ;[04]
    71ce:	1f c0       	rjmp	.+62     	; 0x720e <didUnstuff7>

000071d0 <unstuffEven>:

unstuffEven:
    ori     x3, 1<<6    ;[09] will be shifted right 6 times for bit 0
    71d0:	40 64       	ori	r20, 0x40	; 64

000071d2 <.Loc.84>:
    in      x1, USBIN   ;[00] [10]
    71d2:	09 b1       	in	r16, 0x09	; 9

000071d4 <.Loc.85>:
    andi    shift, ~0x80;[01]
    71d4:	2f 77       	andi	r18, 0x7F	; 127

000071d6 <.Loc.86>:
    andi    x1, USBMASK ;[02]
    71d6:	0c 70       	andi	r16, 0x0C	; 12

000071d8 <.Loc.87>:
    breq    se0         ;[03]
    71d8:	d1 f1       	breq	.+116    	; 0x724e <se0>

000071da <.Loc.88>:
    subi    leap, -1    ;[04] total duration = 11 bits -> subtract 1/3
    71da:	5f 5f       	subi	r21, 0xFF	; 255

000071dc <.Loc.89>:
    nop2                ;[05]
    71dc:	00 c0       	rjmp	.+0      	; 0x71de <L0^A>

000071de <L0^A>:
    rjmp    didUnstuffE ;[06]
    71de:	23 c0       	rjmp	.+70     	; 0x7226 <didUnstuffE>

000071e0 <unstuffOdd>:

unstuffOdd:
    ori     x3, 1<<5    ;[09] will be shifted right 4 times for bit 1
    71e0:	40 62       	ori	r20, 0x20	; 32

000071e2 <.Loc.92>:
    in      x2, USBIN   ;[00] [10]
    71e2:	19 b1       	in	r17, 0x09	; 9

000071e4 <.Loc.93>:
    andi    shift, ~0x80;[01]
    71e4:	2f 77       	andi	r18, 0x7F	; 127

000071e6 <.Loc.94>:
    andi    x2, USBMASK ;[02]
    71e6:	1c 70       	andi	r17, 0x0C	; 12

000071e8 <.Loc.95>:
    breq    se0         ;[03]
    71e8:	91 f1       	breq	.+100    	; 0x724e <se0>

000071ea <.Loc.96>:
    subi    leap, -1    ;[04] total duration = 11 bits -> subtract 1/3
    71ea:	5f 5f       	subi	r21, 0xFF	; 255

000071ec <.Loc.97>:
    nop2                ;[05]
    71ec:	00 c0       	rjmp	.+0      	; 0x71ee <L0^A>

000071ee <L0^A>:
    rjmp    didUnstuffO ;[06]
    71ee:	25 c0       	rjmp	.+74     	; 0x723a <didUnstuffO>

000071f0 <rxByteLoop>:

rxByteLoop:
    andi    x1, USBMASK ;[03]
    71f0:	0c 70       	andi	r16, 0x0C	; 12

000071f2 <.Loc.100>:
    eor     x2, x1      ;[04]
    71f2:	10 27       	eor	r17, r16

000071f4 <.Loc.101>:
    subi    leap, 1     ;[05]
    71f4:	51 50       	subi	r21, 0x01	; 1

000071f6 <.Loc.102>:
    brpl    skipLeap    ;[06]
    71f6:	12 f4       	brpl	.+4      	; 0x71fc <skipLeap>

000071f8 <.Loc.103>:
    subi    leap, -3    ;1 one leap cycle every 3rd byte -> 85 + 1/3 cycles per byte
    71f8:	5d 5f       	subi	r21, 0xFD	; 253

000071fa <.Loc.104>:
	...

000071fc <skipLeap>:
    nop                 ;1
skipLeap:
    subi    x2, 1       ;[08]
    71fc:	11 50       	subi	r17, 0x01	; 1

000071fe <.Loc.106>:
    ror     shift       ;[09]
    71fe:	27 95       	ror	r18

00007200 <didUnstuff6>:
didUnstuff6:
    cpi     shift, 0xfc ;[10]
    7200:	2c 3f       	cpi	r18, 0xFC	; 252

00007202 <.Loc.108>:
    in      x2, USBIN   ;[00] [11] <-- sample bit 7
    7202:	19 b1       	in	r17, 0x09	; 9

00007204 <.Loc.109>:
    brcc    unstuff6    ;[01]
    7204:	c8 f6       	brcc	.-78     	; 0x71b8 <unstuff6>

00007206 <.Loc.110>:
    andi    x2, USBMASK ;[02]
    7206:	1c 70       	andi	r17, 0x0C	; 12

00007208 <.Loc.111>:
    eor     x1, x2      ;[03]
    7208:	01 27       	eor	r16, r17

0000720a <.Loc.112>:
    subi    x1, 1       ;[04]
    720a:	01 50       	subi	r16, 0x01	; 1

0000720c <.Loc.113>:
    ror     shift       ;[05]
    720c:	27 95       	ror	r18

0000720e <didUnstuff7>:
didUnstuff7:
    cpi     shift, 0xfc ;[06]
    720e:	2c 3f       	cpi	r18, 0xFC	; 252

00007210 <.Loc.115>:
    brcc    unstuff7    ;[07]
    7210:	c8 f6       	brcc	.-78     	; 0x71c4 <unstuff7>

00007212 <.Loc.116>:
    eor     x3, shift   ;[08] reconstruct: x3 is 1 at bit locations we changed, 0 at others
    7212:	42 27       	eor	r20, r18

00007214 <.Loc.117>:
    st      y+, x3      ;[09] store data
    7214:	49 93       	st	Y+, r20

00007216 <rxBitLoop>:
rxBitLoop:
    in      x1, USBIN   ;[00] [11] <-- sample bit 0/2/4
    7216:	09 b1       	in	r16, 0x09	; 9

00007218 <.Loc.119>:
    andi    x1, USBMASK ;[01]
    7218:	0c 70       	andi	r16, 0x0C	; 12

0000721a <.Loc.120>:
    eor     x2, x1      ;[02]
    721a:	10 27       	eor	r17, r16

0000721c <.Loc.121>:
    andi    x3, 0x3f    ;[03] topmost two bits reserved for 6 and 7
    721c:	4f 73       	andi	r20, 0x3F	; 63

0000721e <.Loc.122>:
    subi    x2, 1       ;[04]
    721e:	11 50       	subi	r17, 0x01	; 1

00007220 <.Loc.123>:
    ror     shift       ;[05]
    7220:	27 95       	ror	r18

00007222 <.Loc.124>:
    cpi     shift, 0xfc ;[06]
    7222:	2c 3f       	cpi	r18, 0xFC	; 252

00007224 <.Loc.125>:
    brcc    unstuffEven ;[07]
    7224:	a8 f6       	brcc	.-86     	; 0x71d0 <unstuffEven>

00007226 <didUnstuffE>:
didUnstuffE:
    lsr     x3          ;[08]
    7226:	46 95       	lsr	r20

00007228 <.Loc.127>:
    lsr     x3          ;[09]
    7228:	46 95       	lsr	r20

0000722a <rxbit1>:
rxbit1:
    in      x2, USBIN   ;[00] [10] <-- sample bit 1/3/5
    722a:	19 b1       	in	r17, 0x09	; 9

0000722c <.Loc.129>:
    andi    x2, USBMASK ;[01]
    722c:	1c 70       	andi	r17, 0x0C	; 12

0000722e <.Loc.130>:
    breq    se0         ;[02]
    722e:	79 f0       	breq	.+30     	; 0x724e <se0>

00007230 <.Loc.131>:
    eor     x1, x2      ;[03]
    7230:	01 27       	eor	r16, r17

00007232 <.Loc.132>:
    subi    x1, 1       ;[04]
    7232:	01 50       	subi	r16, 0x01	; 1

00007234 <.Loc.133>:
    ror     shift       ;[05]
    7234:	27 95       	ror	r18

00007236 <.Loc.134>:
    cpi     shift, 0xfc ;[06]
    7236:	2c 3f       	cpi	r18, 0xFC	; 252

00007238 <.Loc.135>:
    brcc    unstuffOdd  ;[07]
    7238:	98 f6       	brcc	.-90     	; 0x71e0 <unstuffOdd>

0000723a <didUnstuffO>:
didUnstuffO:
    subi    bitcnt, 0xab;[08] == addi 0x55, 0x55 = 0x100/3
    723a:	6b 5a       	subi	r22, 0xAB	; 171

0000723c <.Loc.137>:
    brcs    rxBitLoop   ;[09]
    723c:	60 f3       	brcs	.-40     	; 0x7216 <rxBitLoop>

0000723e <.Loc.138>:

    subi    cnt, 1      ;[10]
    723e:	31 50       	subi	r19, 0x01	; 1

00007240 <.Loc.139>:
    in      x1, USBIN   ;[00] [11] <-- sample bit 6
    7240:	09 b1       	in	r16, 0x09	; 9

00007242 <.Loc.140>:
    brcc    rxByteLoop  ;[01]
    7242:	b0 f6       	brcc	.-84     	; 0x71f0 <rxByteLoop>

00007244 <.Loc.141>:
    rjmp    overflow
    7244:	00 c0       	rjmp	.+0      	; 0x7246 <overflow>

00007246 <overflow>:
*/

#define token   x1

overflow:
    ldi     x2, 1<<USB_INTR_PENDING_BIT
    7246:	11 e0       	ldi	r17, 0x01	; 1

00007248 <.Loc.143>:
    USB_STORE_PENDING(x2)       ; clear any pending interrupts
    7248:	1c bb       	out	0x1c, r17	; 28

0000724a <ignorePacket>:
ignorePacket:
    clr     token
    724a:	00 27       	eor	r16, r16

0000724c <.Loc.145>:
    rjmp    storeTokenAndReturn
    724c:	17 c0       	rjmp	.+46     	; 0x727c <handleSetupOrOut>

0000724e <se0>:
; Processing of received packet (numbers in brackets are cycles after center of SE0)
;----------------------------------------------------------------------------
;This is the only non-error exit point for the software receiver loop
;we don't check any CRCs here because there is no time left.
se0:
    subi    cnt, USB_BUFSIZE    ;[5]
    724e:	3b 50       	subi	r19, 0x0B	; 11

00007250 <.Loc.147>:
    neg     cnt                 ;[6]
    7250:	31 95       	neg	r19

00007252 <.Loc.148>:
    sub     YL, cnt             ;[7]
    7252:	c3 1b       	sub	r28, r19

00007254 <.Loc.149>:
    sbci    YH, 0               ;[8]
    7254:	d0 40       	sbci	r29, 0x00	; 0

00007256 <.Loc.150>:
    ldi     x2, 1<<USB_INTR_PENDING_BIT ;[9]
    7256:	11 e0       	ldi	r17, 0x01	; 1

00007258 <.Loc.151>:
    USB_STORE_PENDING(x2)       ;[10] clear pending intr and check flag later. SE0 should be over.
    7258:	1c bb       	out	0x1c, r17	; 28

0000725a <.Loc.152>:
    ld      token, y            ;[11]
    725a:	08 81       	ld	r16, Y

0000725c <.Loc.153>:
    cpi     token, USBPID_DATA0 ;[13]
    725c:	03 3c       	cpi	r16, 0xC3	; 195

0000725e <.Loc.154>:
    breq    handleData          ;[14]
    725e:	f9 f0       	breq	.+62     	; 0x729e <handleData>

00007260 <.Loc.155>:
    cpi     token, USBPID_DATA1 ;[15]
    7260:	0b 34       	cpi	r16, 0x4B	; 75

00007262 <.Loc.156>:
    breq    handleData          ;[16]
    7262:	e9 f0       	breq	.+58     	; 0x729e <handleData>

00007264 <.Loc.157>:
    lds     shift, usbDeviceAddr;[17]
    7264:	20 91 18 01 	lds	r18, 0x0118	; 0x800118 <usbDeviceAddr>

00007268 <.Loc.158>:
    ldd     x2, y+1             ;[19] ADDR and 1 bit endpoint number
    7268:	19 81       	ldd	r17, Y+1	; 0x01

0000726a <.Loc.159>:
    lsl     x2                  ;[21] shift out 1 bit endpoint number
    726a:	11 0f       	add	r17, r17

0000726c <.Loc.160>:
    cpse    x2, shift           ;[22]
    726c:	12 13       	cpse	r17, r18

0000726e <.Loc.161>:
    rjmp    ignorePacket        ;[23]
    726e:	ed cf       	rjmp	.-38     	; 0x724a <ignorePacket>

00007270 <.Loc.162>:
/* only compute endpoint number in x3 if required later */
#if USB_CFG_HAVE_INTRIN_ENDPOINT || USB_CFG_IMPLEMENT_FN_WRITEOUT
    ldd     x3, y+2             ;[24] endpoint number + crc
    rol     x3                  ;[26] shift in LSB of endpoint
#endif
    cpi     token, USBPID_IN    ;[27]
    7270:	09 36       	cpi	r16, 0x69	; 105

00007272 <.Loc.163>:
    breq    handleIn            ;[28]
    7272:	51 f1       	breq	.+84     	; 0x72c8 <handleIn>

00007274 <.Loc.164>:
    cpi     token, USBPID_SETUP ;[29]
    7274:	0d 32       	cpi	r16, 0x2D	; 45

00007276 <.Loc.165>:
    breq    handleSetupOrOut    ;[30]
    7276:	11 f0       	breq	.+4      	; 0x727c <handleSetupOrOut>

00007278 <.Loc.166>:
    cpi     token, USBPID_OUT   ;[31]
    7278:	01 3e       	cpi	r16, 0xE1	; 225

0000727a <.Loc.167>:
    brne    ignorePacket        ;[32] must be ack, nak or whatever
    727a:	39 f7       	brne	.-50     	; 0x724a <ignorePacket>

0000727c <handleSetupOrOut>:
    andi    x3, 0xf             ;[32]
    breq    storeTokenAndReturn ;[33]
    mov     token, x3           ;[34] indicate that this is endpoint x OUT
#endif
storeTokenAndReturn:
    sts     usbCurrentTok, token;[35]
    727c:	00 93 14 01 	sts	0x0114, r16	; 0x800114 <usbCurrentTok>

00007280 <doReturn>:
doReturn:
    POP_STANDARD                ;[37] 12...16 cycles
    7280:	3f 91       	pop	r19
    7282:	5f 91       	pop	r21
    7284:	4f 91       	pop	r20
    7286:	1f 91       	pop	r17
    7288:	0f 91       	pop	r16
    728a:	2f 91       	pop	r18
    728c:	6f 91       	pop	r22

0000728e <.Loc.170>:
    USB_LOAD_PENDING(YL)        ;[49]
    728e:	cc b3       	in	r28, 0x1c	; 28

00007290 <.Loc.171>:
    sbrc    YL, USB_INTR_PENDING_BIT;[50] check whether data is already arriving
    7290:	c0 fd       	sbrc	r28, 0

00007292 <.Loc.172>:
    rjmp    waitForJ            ;[51] save the pops and pushes -- a new interrupt is already pending
    7292:	67 cf       	rjmp	.-306    	; 0x7162 <waitForJ>

00007294 <sofError>:
sofError:
    POP_RETI                    ;macro call
    7294:	df 91       	pop	r29
    7296:	cf 91       	pop	r28
    7298:	cf bf       	out	0x3f, r28	; 63
    729a:	cf 91       	pop	r28

0000729c <.Loc.174>:
    reti
    729c:	18 95       	reti

0000729e <handleData>:

handleData:
#if USB_CFG_CHECK_CRC
    CRC_CLEANUP_AND_CHECK       ; jumps to ignorePacket if CRC error
#endif
    lds     shift, usbCurrentTok;[18]
    729e:	20 91 14 01 	lds	r18, 0x0114	; 0x800114 <usbCurrentTok>

000072a2 <.Loc.176>:
    tst     shift               ;[20]
    72a2:	22 23       	and	r18, r18

000072a4 <.Loc.177>:
    breq    doReturn            ;[21]
    72a4:	69 f3       	breq	.-38     	; 0x7280 <doReturn>

000072a6 <.Loc.178>:
    lds     x2, usbRxLen        ;[22]
    72a6:	10 91 15 01 	lds	r17, 0x0115	; 0x800115 <usbRxLen>

000072aa <.Loc.179>:
    tst     x2                  ;[24]
    72aa:	11 23       	and	r17, r17

000072ac <.Loc.180>:
    brne    sendNakAndReti      ;[25]
    72ac:	39 f5       	brne	.+78     	; 0x72fc <sendNakAndReti>

000072ae <.Loc.181>:
; 2006-03-11: The following two lines fix a problem where the device was not
; recognized if usbPoll() was called less frequently than once every 4 ms.
    cpi     cnt, 4              ;[26] zero sized data packets are status phase only -- ignore and ack
    72ae:	34 30       	cpi	r19, 0x04	; 4

000072b0 <.Loc.182>:
    brmi    sendAckAndReti      ;[27] keep rx buffer clean -- we must not NAK next SETUP
    72b0:	3a f1       	brmi	.+78     	; 0x7300 <sendAckAndReti>

000072b2 <.Loc.183>:
#if USB_CFG_CHECK_DATA_TOGGLING
    sts     usbCurrentDataToken, token  ; store for checking by C code
#endif
    sts     usbRxLen, cnt       ;[28] store received data, swap buffers
    72b2:	30 93 15 01 	sts	0x0115, r19	; 0x800115 <usbRxLen>

000072b6 <.Loc.184>:
    sts     usbRxToken, shift   ;[30]
    72b6:	20 93 13 01 	sts	0x0113, r18	; 0x800113 <usbRxToken>

000072ba <.Loc.185>:
    lds     x2, usbInputBufOffset;[32] swap buffers
    72ba:	10 91 19 01 	lds	r17, 0x0119	; 0x800119 <usbInputBufOffset>

000072be <.Loc.186>:
    ldi     cnt, USB_BUFSIZE    ;[34]
    72be:	3b e0       	ldi	r19, 0x0B	; 11

000072c0 <.Loc.187>:
    sub     cnt, x2             ;[35]
    72c0:	31 1b       	sub	r19, r17

000072c2 <.Loc.188>:
    sts     usbInputBufOffset, cnt;[36] buffers now swapped
    72c2:	30 93 19 01 	sts	0x0119, r19	; 0x800119 <usbInputBufOffset>

000072c6 <.Loc.189>:
    rjmp    sendAckAndReti      ;[38] 40 + 17 = 57 until SOP
    72c6:	1c c0       	rjmp	.+56     	; 0x7300 <sendAckAndReti>

000072c8 <handleIn>:

handleIn:
;We don't send any data as long as the C code has not processed the current
;input data and potentially updated the output data. That's more efficient
;in terms of code size than clearing the tx buffers when a packet is received.
    lds     x1, usbRxLen        ;[30]
    72c8:	00 91 15 01 	lds	r16, 0x0115	; 0x800115 <usbRxLen>

000072cc <.Loc.191>:
    cpi     x1, 1               ;[32] negative values are flow control, 0 means "buffer free"
    72cc:	01 30       	cpi	r16, 0x01	; 1

000072ce <.Loc.192>:
    brge    sendNakAndReti      ;[33] unprocessed input packet?
    72ce:	b4 f4       	brge	.+44     	; 0x72fc <sendNakAndReti>

000072d0 <.Loc.193>:
    ldi     x1, USBPID_NAK      ;[34] prepare value for usbTxLen
    72d0:	0a e5       	ldi	r16, 0x5A	; 90

000072d2 <.Loc.194>:
    brne    sendNakAndReti      ;[36]
#else
    brne    handleIn1           ;[36]
#endif
#endif
    lds     cnt, usbTxLen       ;[37]
    72d2:	30 91 01 01 	lds	r19, 0x0101	; 0x800101 <usbTxLen>

000072d6 <.Loc.195>:
    sbrc    cnt, 4              ;[39] all handshake tokens have bit 4 set
    72d6:	34 fd       	sbrc	r19, 4

000072d8 <.Loc.196>:
    rjmp    sendCntAndReti      ;[40] 42 + 16 = 58 until SOP
    72d8:	14 c0       	rjmp	.+40     	; 0x7302 <sendCntAndReti>

000072da <.Loc.197>:
    sts     usbTxLen, x1        ;[41] x1 == USBPID_NAK from above
    72da:	00 93 01 01 	sts	0x0101, r16	; 0x800101 <usbTxLen>

000072de <.Loc.198>:
    ldi     YL, lo8(usbTxBuf)   ;[43]
    72de:	c8 e0       	ldi	r28, 0x08	; 8

000072e0 <.Loc.199>:
    ldi     YH, hi8(usbTxBuf)   ;[44]
    72e0:	d1 e0       	ldi	r29, 0x01	; 1

000072e2 <.Loc.200>:
    rjmp    usbSendAndReti      ;[45] 57 + 12 = 59 until SOP
    72e2:	13 c0       	rjmp	.+38     	; 0x730a <usbSendAndReti>

000072e4 <bitstuffN>:
; J = (D+ = 0), (D- = 1)
; K = (D+ = 1), (D- = 0)
; Spec allows 7.5 bit times from EOP to SOP for replies

bitstuffN:
    eor     x1, x4          ;[5]
    72e4:	05 27       	eor	r16, r21

000072e6 <.Loc.202>:
    ldi     x2, 0           ;[6]
    72e6:	10 e0       	ldi	r17, 0x00	; 0

000072e8 <.Loc.203>:
    nop2                    ;[7]
    72e8:	00 c0       	rjmp	.+0      	; 0x72ea <L0^A>

000072ea <L0^A>:
	...

000072ec <.Loc.205>:
    nop                     ;[9]
    out     USBOUT, x1      ;[10] <-- out
    72ec:	0b b9       	out	0x0b, r16	; 11

000072ee <.Loc.206>:
    rjmp    didStuffN       ;[0]
    72ee:	1a c0       	rjmp	.+52     	; 0x7324 <didStuffN>

000072f0 <bitstuff6>:
    
bitstuff6:
    eor     x1, x4          ;[5]
    72f0:	05 27       	eor	r16, r21

000072f2 <.Loc.208>:
    ldi     x2, 0           ;[6] Carry is zero due to brcc
    72f2:	10 e0       	ldi	r17, 0x00	; 0

000072f4 <.Loc.209>:
    rol     shift           ;[7] compensate for ror shift at branch destination
    72f4:	22 1f       	adc	r18, r18

000072f6 <.Loc.210>:
    rjmp    didStuff6       ;[8]
    72f6:	1d c0       	rjmp	.+58     	; 0x7332 <didStuff6>

000072f8 <bitstuff7>:

bitstuff7:
    ldi     x2, 0           ;[2] Carry is zero due to brcc
    72f8:	10 e0       	ldi	r17, 0x00	; 0

000072fa <.Loc.212>:
    rjmp    didStuff7       ;[3]
    72fa:	21 c0       	rjmp	.+66     	; 0x733e <didStuff7>

000072fc <sendNakAndReti>:


sendNakAndReti:
    ldi     x3, USBPID_NAK  ;[-18]
    72fc:	4a e5       	ldi	r20, 0x5A	; 90

000072fe <.Loc.214>:
    rjmp    sendX3AndReti   ;[-17]
    72fe:	02 c0       	rjmp	.+4      	; 0x7304 <sendX3AndReti>

00007300 <sendAckAndReti>:
sendAckAndReti:
    ldi     cnt, USBPID_ACK ;[-17]
    7300:	32 ed       	ldi	r19, 0xD2	; 210

00007302 <sendCntAndReti>:
sendCntAndReti:
    mov     x3, cnt         ;[-16]
    7302:	43 2f       	mov	r20, r19

00007304 <sendX3AndReti>:
sendX3AndReti:
    ldi     YL, 20          ;[-15] x3==r20 address is 20
    7304:	c4 e1       	ldi	r28, 0x14	; 20

00007306 <.Loc.218>:
    ldi     YH, 0           ;[-14]
    7306:	d0 e0       	ldi	r29, 0x00	; 0

00007308 <.Loc.219>:
    ldi     cnt, 2          ;[-13]
    7308:	32 e0       	ldi	r19, 0x02	; 2

0000730a <usbSendAndReti>:
;uses: x1...x4, btcnt, shift, cnt, Y
;Numbers in brackets are time since first bit of sync pattern is sent
;We don't match the transfer rate exactly (don't insert leap cycles every third
;byte) because the spec demands only 1.5% precision anyway.
usbSendAndReti:             ; 12 cycles until SOP
    in      x2, USBDDR      ;[-12]
    730a:	1a b1       	in	r17, 0x0a	; 10

0000730c <.Loc.221>:
    ori     x2, USBMASK     ;[-11]
    730c:	1c 60       	ori	r17, 0x0C	; 12

0000730e <.Loc.222>:
    sbi     USBOUT, USBMINUS;[-10] prepare idle state; D+ and D- must have been 0 (no pullups)
    730e:	5b 9a       	sbi	0x0b, 3	; 11

00007310 <.Loc.223>:
    in      x1, USBOUT      ;[-8] port mirror for tx loop
    7310:	0b b1       	in	r16, 0x0b	; 11

00007312 <.Loc.224>:
    out     USBDDR, x2      ;[-7] <- acquire bus
    7312:	1a b9       	out	0x0a, r17	; 10

00007314 <.Loc.225>:
; need not init x2 (bitstuff history) because sync starts with 0
    ldi     x4, USBMASK     ;[-6] exor mask
    7314:	5c e0       	ldi	r21, 0x0C	; 12

00007316 <.Loc.226>:
    ldi     shift, 0x80     ;[-5] sync byte is first byte sent
    7316:	20 e8       	ldi	r18, 0x80	; 128

00007318 <txByteLoop>:
txByteLoop:
    ldi     bitcnt, 0x35    ;[-4] [6] binary 0011 0101
    7318:	65 e3       	ldi	r22, 0x35	; 53

0000731a <txBitLoop>:
txBitLoop:
    sbrs    shift, 0        ;[-3] [7]
    731a:	20 ff       	sbrs	r18, 0

0000731c <.Loc.229>:
    eor     x1, x4          ;[-2] [8]
    731c:	05 27       	eor	r16, r21

0000731e <.Loc.230>:
    out     USBOUT, x1      ;[-1] [9] <-- out N
    731e:	0b b9       	out	0x0b, r16	; 11

00007320 <.Loc.231>:
    ror     shift           ;[0] [10]
    7320:	27 95       	ror	r18

00007322 <.Loc.232>:
    ror     x2              ;[1]
    7322:	17 95       	ror	r17

00007324 <didStuffN>:
didStuffN:
    cpi     x2, 0xfc        ;[2]
    7324:	1c 3f       	cpi	r17, 0xFC	; 252

00007326 <.Loc.234>:
    brcc    bitstuffN       ;[3]
    7326:	f0 f6       	brcc	.-68     	; 0x72e4 <bitstuffN>

00007328 <.Loc.235>:
    lsr     bitcnt          ;[4]
    7328:	66 95       	lsr	r22

0000732a <.Loc.236>:
    brcc    txBitLoop       ;[5]
    732a:	b8 f7       	brcc	.-18     	; 0x731a <txBitLoop>

0000732c <.Loc.237>:
    brne    txBitLoop       ;[6]
    732c:	b1 f7       	brne	.-20     	; 0x731a <txBitLoop>

0000732e <.Loc.238>:

    sbrs    shift, 0        ;[7]
    732e:	20 ff       	sbrs	r18, 0

00007330 <.Loc.239>:
    eor     x1, x4          ;[8]
    7330:	05 27       	eor	r16, r21

00007332 <didStuff6>:
didStuff6:
    out     USBOUT, x1      ;[-1] [9] <-- out 6
    7332:	0b b9       	out	0x0b, r16	; 11

00007334 <.Loc.241>:
    ror     shift           ;[0] [10]
    7334:	27 95       	ror	r18

00007336 <.Loc.242>:
    ror     x2              ;[1]
    7336:	17 95       	ror	r17

00007338 <.Loc.243>:
    cpi     x2, 0xfc        ;[2]
    7338:	1c 3f       	cpi	r17, 0xFC	; 252

0000733a <.Loc.244>:
    brcc    bitstuff6       ;[3]
    733a:	d0 f6       	brcc	.-76     	; 0x72f0 <bitstuff6>

0000733c <.Loc.245>:
    ror     shift           ;[4]
    733c:	27 95       	ror	r18

0000733e <didStuff7>:
didStuff7:
    ror     x2              ;[5]
    733e:	17 95       	ror	r17

00007340 <.Loc.247>:
    sbrs    x2, 7           ;[6]
    7340:	17 ff       	sbrs	r17, 7

00007342 <.Loc.248>:
    eor     x1, x4          ;[7]
    7342:	05 27       	eor	r16, r21

00007344 <.Loc.249>:
	...

00007346 <.Loc.250>:
    nop                     ;[8]
    cpi     x2, 0xfc        ;[9]
    7346:	1c 3f       	cpi	r17, 0xFC	; 252

00007348 <.Loc.251>:
    out     USBOUT, x1      ;[-1][10] <-- out 7
    7348:	0b b9       	out	0x0b, r16	; 11

0000734a <.Loc.252>:
    brcc    bitstuff7       ;[0] [11]
    734a:	b0 f6       	brcc	.-84     	; 0x72f8 <bitstuff7>

0000734c <.Loc.253>:
    ld      shift, y+       ;[1]
    734c:	29 91       	ld	r18, Y+

0000734e <.Loc.254>:
    dec     cnt             ;[3]
    734e:	3a 95       	dec	r19

00007350 <.Loc.255>:
    brne    txByteLoop      ;[4]
    7350:	19 f7       	brne	.-58     	; 0x7318 <txByteLoop>

00007352 <.Loc.256>:
;make SE0:
    cbr     x1, USBMASK     ;[5] prepare SE0 [spec says EOP may be 21 to 25 cycles]
    7352:	03 7f       	andi	r16, 0xF3	; 243

00007354 <.Loc.257>:
    lds     x2, usbNewDeviceAddr;[6]
    7354:	10 91 17 01 	lds	r17, 0x0117	; 0x800117 <usbNewDeviceAddr>

00007358 <.Loc.258>:
    lsl     x2              ;[8] we compare with left shifted address
    7358:	11 0f       	add	r17, r17

0000735a <.Loc.259>:
    subi    YL, 20 + 2      ;[9] Only assign address on data packets, not ACK/NAK in x3
    735a:	c6 51       	subi	r28, 0x16	; 22

0000735c <.Loc.260>:
    sbci    YH, 0           ;[10]
    735c:	d0 40       	sbci	r29, 0x00	; 0

0000735e <.Loc.261>:
    out     USBOUT, x1      ;[11] <-- out SE0 -- from now 2 bits = 22 cycles until bus idle
    735e:	0b b9       	out	0x0b, r16	; 11

00007360 <.Loc.262>:
;2006-03-06: moved transfer of new address to usbDeviceAddr from C-Code to asm:
;set address only after data packet was sent, not after handshake
    breq    skipAddrAssign  ;[0]
    7360:	11 f0       	breq	.+4      	; 0x7366 <skipAddrAssign>

00007362 <.Loc.263>:
    sts     usbDeviceAddr, x2; if not skipped: SE0 is one cycle longer
    7362:	10 93 18 01 	sts	0x0118, r17	; 0x800118 <usbDeviceAddr>

00007366 <skipAddrAssign>:
skipAddrAssign:
;end of usbDeviceAddress transfer
    ldi     x2, 1<<USB_INTR_PENDING_BIT;[2] int0 occurred during TX -- clear pending flag
    7366:	11 e0       	ldi	r17, 0x01	; 1

00007368 <.Loc.265>:
    USB_STORE_PENDING(x2)   ;[3]
    7368:	1c bb       	out	0x1c, r17	; 28

0000736a <.Loc.266>:
    ori     x1, USBIDLE     ;[4]
    736a:	08 60       	ori	r16, 0x08	; 8

0000736c <.Loc.267>:
    in      x2, USBDDR      ;[5]
    736c:	1a b1       	in	r17, 0x0a	; 10

0000736e <.Loc.268>:
    cbr     x2, USBMASK     ;[6] set both pins to input
    736e:	13 7f       	andi	r17, 0xF3	; 243

00007370 <.Loc.269>:
    mov     x3, x1          ;[7]
    7370:	40 2f       	mov	r20, r16

00007372 <.Loc.270>:
    cbr     x3, USBMASK     ;[8] configure no pullup on both pins
    7372:	43 7f       	andi	r20, 0xF3	; 243

00007374 <.Loc.271>:
    ldi     x4, 4           ;[9]
    7374:	54 e0       	ldi	r21, 0x04	; 4

00007376 <se0Delay>:
se0Delay:
    dec     x4              ;[10] [13] [16] [19]
    7376:	5a 95       	dec	r21

00007378 <.Loc.273>:
    brne    se0Delay        ;[11] [14] [17] [20]
    7378:	f1 f7       	brne	.-4      	; 0x7376 <se0Delay>

0000737a <.Loc.274>:
    out     USBOUT, x1      ;[21] <-- out J (idle) -- end of SE0 (EOP signal)
    737a:	0b b9       	out	0x0b, r16	; 11

0000737c <.Loc.275>:
    out     USBDDR, x2      ;[22] <-- release bus now
    737c:	1a b9       	out	0x0a, r17	; 10

0000737e <.Loc.276>:
    out     USBOUT, x3      ;[23] <-- ensure no pull-up resistors are active
    737e:	4b b9       	out	0x0b, r20	; 11

00007380 <.Loc.277>:
    rjmp    doReturn
    7380:	7f cf       	rjmp	.-258    	; 0x7280 <doReturn>

00007382 <usbFunctionSetup_USBASP_FUNC_TRANSMIT>:
#endif

/* ------------------------------------------------------------------------ */


uchar usbFunctionSetup_USBASP_FUNC_TRANSMIT(usbRequest_t *rq) {
    7382:	fc 01       	movw	r30, r24

00007384 <.LVL1>:
  uchar rval = 0;
  usbWord_t address;
  address.bytes[1] = rq->wValue.bytes[1];
    7384:	43 81       	ldd	r20, Z+3	; 0x03

00007386 <.Loc.10>:
  address.bytes[0] = rq->wIndex.bytes[0];
    7386:	34 81       	ldd	r19, Z+4	; 0x04

00007388 <.Loc.11>:
    7388:	83 81       	ldd	r24, Z+3	; 0x03
    738a:	94 81       	ldd	r25, Z+4	; 0x04

0000738c <.Loc.12>:
    738c:	98 27       	eor	r25, r24
    738e:	89 27       	eor	r24, r25
    7390:	98 27       	eor	r25, r24

00007392 <.Loc.13>:

  if(rq->wValue.bytes[0] == 0x30){        /* read signature */
    7392:	22 81       	ldd	r18, Z+2	; 0x02

00007394 <.Loc.15>:
    7394:	20 33       	cpi	r18, 0x30	; 48
    7396:	39 f4       	brne	.+14     	; 0x73a6 <.L3>

00007398 <.Loc.16>:
    rval = rq->wIndex.bytes[0] & 3;
    7398:	33 70       	andi	r19, 0x03	; 3

0000739a <.Loc.19>:
    rval = signatureBytes[rval];
    739a:	e3 2f       	mov	r30, r19

0000739c <.Loc.20>:
    739c:	f0 e0       	ldi	r31, 0x00	; 0

0000739e <.Loc.21>:
    739e:	ee 5f       	subi	r30, 0xFE	; 254
    73a0:	fe 4f       	sbci	r31, 0xFE	; 254
    73a2:	80 81       	ld	r24, Z

000073a4 <.Loc.22>:
    73a4:	08 95       	ret

000073a6 <.L3>:
defined (__AVR_ATmega1280__) ||													\
defined (__AVR_ATmega1281__) ||													\
defined (__AVR_ATmega1284__) || defined (__AVR_ATmega1284P__)  ||													\
defined (__AVR_ATmega2560__) ||													\
defined (__AVR_ATmega2561__)
  }else if(rq->wValue.bytes[0] == 0x58 && rq->wValue.bytes[1] == 0x00){  /* read lock bits */
    73a6:	28 35       	cpi	r18, 0x58	; 88
    73a8:	79 f4       	brne	.+30     	; 0x73c8 <.L5>

000073aa <.Loc.25>:
    73aa:	44 23       	and	r20, r20
    73ac:	31 f0       	breq	.+12     	; 0x73ba <.L6>

000073ae <.Loc.26>:
      rval = boot_lock_fuse_bits_get(GET_LOCK_BITS);
  }else if(rq->wValue.bytes[0] == 0x50 && rq->wValue.bytes[1] == 0x00){  /* read lfuse bits */
      rval = boot_lock_fuse_bits_get(GET_LOW_FUSE_BITS);
  }else if(rq->wValue.bytes[0] == 0x58 && rq->wValue.bytes[1] == 0x08){  /* read hfuse bits */
    73ae:	48 30       	cpi	r20, 0x08	; 8
    73b0:	c1 f4       	brne	.+48     	; 0x73e2 <.L8>

000073b2 <.LBB18>:
      rval = boot_lock_fuse_bits_get(GET_HIGH_FUSE_BITS);
    73b2:	89 e0       	ldi	r24, 0x09	; 9
    73b4:	e3 e0       	ldi	r30, 0x03	; 3
    73b6:	f0 e0       	ldi	r31, 0x00	; 0

000073b8 <.Loc.32>:
    73b8:	03 c0       	rjmp	.+6      	; 0x73c0 <.L16>

000073ba <.L6>:
      rval = boot_lock_fuse_bits_get(GET_LOCK_BITS);
    73ba:	89 e0       	ldi	r24, 0x09	; 9
    73bc:	e1 e0       	ldi	r30, 0x01	; 1
    73be:	f0 e0       	ldi	r31, 0x00	; 0

000073c0 <.L16>:
      rval = boot_lock_fuse_bits_get(GET_LOW_FUSE_BITS);
    73c0:	80 93 57 00 	sts	0x0057, r24	; 0x800057 <__TEXT_REGION_LENGTH__+0x7e0057>
    73c4:	84 91       	lpm	r24, Z

000073c6 <.LVL11>:
    73c6:	08 95       	ret

000073c8 <.L5>:
  }else if(rq->wValue.bytes[0] == 0x50 && rq->wValue.bytes[1] == 0x00){  /* read lfuse bits */
    73c8:	20 35       	cpi	r18, 0x50	; 80
    73ca:	69 f4       	brne	.+26     	; 0x73e6 <.L9>

000073cc <.Loc.44>:
    73cc:	41 11       	cpse	r20, r1
    73ce:	04 c0       	rjmp	.+8      	; 0x73d8 <.L10>

000073d0 <.Loc.45>:
      rval = boot_lock_fuse_bits_get(GET_LOW_FUSE_BITS);
    73d0:	89 e0       	ldi	r24, 0x09	; 9
    73d2:	e0 e0       	ldi	r30, 0x00	; 0
    73d4:	f0 e0       	ldi	r31, 0x00	; 0

000073d6 <.Loc.48>:
    73d6:	f4 cf       	rjmp	.-24     	; 0x73c0 <.L16>

000073d8 <.L10>:
  }else if(rq->wValue.bytes[0] == 0x50 && rq->wValue.bytes[1] == 0x08){  /* read efuse bits */
      rval = boot_lock_fuse_bits_get(GET_EXTENDED_FUSE_BITS );
    73d8:	89 e0       	ldi	r24, 0x09	; 9
    73da:	e2 e0       	ldi	r30, 0x02	; 2
    73dc:	f0 e0       	ldi	r31, 0x00	; 0

000073de <.LBE22>:
  }else if(rq->wValue.bytes[0] == 0x50 && rq->wValue.bytes[1] == 0x08){  /* read efuse bits */
    73de:	48 30       	cpi	r20, 0x08	; 8
    73e0:	79 f3       	breq	.-34     	; 0x73c0 <.L16>

000073e2 <.L8>:
  uchar rval = 0;
    73e2:	80 e0       	ldi	r24, 0x00	; 0
    73e4:	08 95       	ret

000073e6 <.L9>:
#else
  #warning "HAVE_READ_LOCK_FUSE is activated but MCU unknown -> will not support this feature"
#endif
#endif
#if HAVE_FLASH_BYTE_READACCESS
  }else if(rq->wValue.bytes[0] == 0x20){  /* read FLASH low  byte */
    73e6:	20 32       	cpi	r18, 0x20	; 32
    73e8:	29 f4       	brne	.+10     	; 0x73f4 <.L12>

000073ea <.LBB23>:
#if ((FLASHEND) > 65535)
      rval = pgm_read_byte_far((((addr_t)address.word)<<1)+0);
#else
      rval = pgm_read_byte((((addr_t)address.word)<<1)+0);
    73ea:	88 0f       	add	r24, r24
    73ec:	99 1f       	adc	r25, r25

000073ee <.Loc.61>:
    73ee:	fc 01       	movw	r30, r24

000073f0 <.L17>:
#endif
  }else if(rq->wValue.bytes[0] == 0x28){  /* read FLASH high byte */
#if ((FLASHEND) > 65535)
      rval = pgm_read_byte_far((((addr_t)address.word)<<1)+1);
#else
      rval = pgm_read_byte((((addr_t)address.word)<<1)+1);
    73f0:	84 91       	lpm	r24, Z

000073f2 <.LVL20>:
  }else{
      /* ignore all others, return default value == 0 */
  }
        
  return rval;
}
    73f2:	08 95       	ret

000073f4 <.L12>:
  }else if(rq->wValue.bytes[0] == 0x28){  /* read FLASH high byte */
    73f4:	28 32       	cpi	r18, 0x28	; 40
    73f6:	29 f4       	brne	.+10     	; 0x7402 <.L13>

000073f8 <.LVL22>:
      rval = pgm_read_byte((((addr_t)address.word)<<1)+1);
    73f8:	88 0f       	add	r24, r24
    73fa:	99 1f       	adc	r25, r25

000073fc <.Loc.75>:
    73fc:	fc 01       	movw	r30, r24

000073fe <.Loc.76>:
    73fe:	31 96       	adiw	r30, 0x01	; 1

00007400 <.Loc.77>:
    7400:	f7 cf       	rjmp	.-18     	; 0x73f0 <.L17>

00007402 <.L13>:
  }else if(rq->wValue.bytes[0] == 0xa0){  /* read EEPROM byte */
    7402:	20 3a       	cpi	r18, 0xA0	; 160
    7404:	09 f4       	brne	.+2      	; 0x7408 <.L14>

00007406 <.Loc.81>:
      rval = eeprom_read_byte((void *)address.word);
    7406:	27 c2       	rjmp	.+1102   	; 0x7856 <eeprom_read_byte>

00007408 <.L14>:
  }else if(rq->wValue.bytes[0] == 0xc0){  /* write EEPROM byte */
    7408:	20 3c       	cpi	r18, 0xC0	; 192
    740a:	19 f4       	brne	.+6      	; 0x7412 <.L15>

0000740c <.Loc.85>:
      eeprom_write_byte((void *)address.word, rq->wIndex.bytes[1]);
    740c:	65 81       	ldd	r22, Z+5	; 0x05
    740e:	2b d2       	rcall	.+1110   	; 0x7866 <eeprom_write_byte>

00007410 <.LVL28>:
    7410:	e8 cf       	rjmp	.-48     	; 0x73e2 <.L8>

00007412 <.L15>:
  }else if(rq->wValue.bytes[0] == (HAVE_BOOTLOADER_HIDDENEXITCOMMAND)){  /* cause a bootLoaderExit at disconnect */
    7412:	2f 3f       	cpi	r18, 0xFF	; 255
    7414:	31 f7       	brne	.-52     	; 0x73e2 <.L8>

00007416 <.Loc.89>:
      stayinloader = 0xf1;  /* we need to be connected - so assume it */
    7416:	81 ef       	ldi	r24, 0xF1	; 241
    7418:	80 93 39 01 	sts	0x0139, r24	; 0x800139 <stayinloader>
    741c:	e2 cf       	rjmp	.-60     	; 0x73e2 <.L8>

0000741e <main>:

static inline void  bootLoaderInit(void)
{
#if (BOOTLOADER_IGNOREPROGBUTTON)
#else
    PIN_DDR(JUMPER_PORT)  = 0;
    741e:	1a b8       	out	0x0a, r1	; 10

00007420 <.Loc.96>:
    PIN_PORT(JUMPER_PORT) = (1<< PIN(JUMPER_PORT, JUMPER_BIT)); /* activate pull-up */
    7420:	80 e1       	ldi	r24, 0x10	; 16
    7422:	8b b9       	out	0x0b, r24	; 11

00007424 <.LBE83>:
    /* initialize  */
    bootLoaderInit();
    odDebugInit();
    DBG1(0x00, 0, 0);
#ifndef NO_FLASH_WRITE
    GICR = (1 << IVCE);  /* enable change of interrupt vectors */
    7424:	81 e0       	ldi	r24, 0x01	; 1
    7426:	85 bf       	out	0x35, r24	; 53

00007428 <.Loc.102>:
    GICR = (1 << IVSEL); /* move interrupts to boot flash section */
    7428:	82 e0       	ldi	r24, 0x02	; 2
    742a:	85 bf       	out	0x35, r24	; 53

0000742c <.LBB85>:
    asm volatile (
    742c:	e0 e0       	ldi	r30, 0x00	; 0
    742e:	f1 e7       	ldi	r31, 0x71	; 113

00007430 <_mywait_sleeploop263>:
    7430:	a8 95       	wdr
    7432:	31 97       	sbiw	r30, 0x01	; 1
    7434:	80 40       	sbci	r24, 0x00	; 0
    7436:	e1 f7       	brne	.-8      	; 0x7430 <_mywait_sleeploop263>

00007438 <.LBB87>:
#	if (BOOTLOADER_ALWAYSENTERPROGRAMMODE)
#		define bootLoaderCondition()	(true)
#	else
static inline bool bootLoaderCondition(void)
{
  if (__BOOTLOADERENTRY_FROMSOFTWARE__bootup_MCUCSR & (~(_BV(WDRF)))) {
    7438:	80 91 3b 01 	lds	r24, 0x013B	; 0x80013b <__BOOTLOADERENTRY_FROMSOFTWARE__bootup_MCUCSR>
    743c:	87 7f       	andi	r24, 0xF7	; 247

0000743e <.Loc.112>:
    743e:	81 11       	cpse	r24, r1
    7440:	04 c0       	rjmp	.+8      	; 0x744a <.L19>

00007442 <.Loc.113>:
  } else {
    if (__BOOTLOADERENTRY_FROMSOFTWARE__bootup_RAMEND_doesmatch == (__BOOTLOADERENTRY_FROMSOFTWARE__EXPECTEDADDRESS & 0xff)) {
    7442:	80 91 3c 01 	lds	r24, 0x013C	; 0x80013c <__BOOTLOADERENTRY_FROMSOFTWARE__bootup_RAMEND_doesmatch>

00007446 <.Loc.115>:
    7446:	88 23       	and	r24, r24
    7448:	71 f0       	breq	.+28     	; 0x7466 <.L20>

0000744a <.L19>:
#endif
#if (HAVE_BOOTLOADER_ADDITIONALMSDEVICEWAIT>0)
    _mydelay_ms(HAVE_BOOTLOADER_ADDITIONALMSDEVICEWAIT);
#endif
    if(bootLoaderCondition()){
    744a:	4c 9b       	sbis	0x09, 4	; 9
    744c:	0c c0       	rjmp	.+24     	; 0x7466 <.L20>

0000744e <.L79>:
    cli();
    744e:	f8 94       	cli

00007450 <.Loc.122>:
    usbDeviceDisconnect();
    7450:	53 9a       	sbi	0x0a, 3	; 10

00007452 <.LBB91>:
    PIN_PORT(JUMPER_PORT) = 0;		/* undo bootLoaderInit() changes */
    7452:	1b b8       	out	0x0b, r1	; 11

00007454 <.LBE91>:
    USB_INTR_ENABLE = 0;
    7454:	1d ba       	out	0x1d, r1	; 29

00007456 <.Loc.129>:
    USB_INTR_CFG = 0;       /* also reset config bits */
    7456:	10 92 69 00 	sts	0x0069, r1	; 0x800069 <__DATA_REGION_ORIGIN__+0x9>

0000745a <.Loc.131>:
    GICR = (1 << IVCE);     /* enable change of interrupt vectors */
    745a:	81 e0       	ldi	r24, 0x01	; 1
    745c:	85 bf       	out	0x35, r24	; 53

0000745e <.Loc.133>:
    GICR = (0 << IVSEL);    /* move interrupts to application flash section */
    745e:	15 be       	out	0x35, r1	; 53

00007460 <.Loc.135>:
    nullVector();
    7460:	e0 e0       	ldi	r30, 0x00	; 0
    7462:	f0 e0       	ldi	r31, 0x00	; 0
    7464:	09 95       	icall

00007466 <.L20>:
#		if ((defined(CONFIG_HAVE__BOOTLOADER_ABORTTIMEOUTONACT)) && (!(BOOTLOADER_IGNOREPROGBUTTON)) && (BOOTLOADER_LOOPCYCLES_TIMEOUT))
      if (bootLoaderConditionSimple()) {
	stayinloader = stayinloader_initialValue - 0x02;
      } else
#		endif
	      stayinloader = stayinloader_initialValue;
    7466:	8e ef       	ldi	r24, 0xFE	; 254
    7468:	80 93 39 01 	sts	0x0139, r24	; 0x800139 <stayinloader>

0000746c <.Loc.138>:
	__original_WDTCR=WDTCR;
	if (__original_WDTCR & _BV(WDE)) {
	  wdt_enable(WDTO_2S);
	}
#else
	MCUCSR = 0;       /* clear all reset flags for next time */
    746c:	14 be       	out	0x34, r1	; 52

0000746e <.LBB93>:
		);
	}
	else
	{
        uint8_t register temp_reg;
		__asm__ __volatile__ (
    746e:	0f b6       	in	r0, 0x3f	; 63
    7470:	f8 94       	cli
    7472:	a8 95       	wdr
    7474:	80 91 60 00 	lds	r24, 0x0060	; 0x800060 <__DATA_REGION_ORIGIN__>
    7478:	88 61       	ori	r24, 0x18	; 24
    747a:	80 93 60 00 	sts	0x0060, r24	; 0x800060 <__DATA_REGION_ORIGIN__>
    747e:	10 92 60 00 	sts	0x0060, r1	; 0x800060 <__DATA_REGION_ORIGIN__>
    7482:	0f be       	out	0x3f, r0	; 63

00007484 <.LBB95>:
/* ------------------------------------------------------------------------- */

USB_PUBLIC void usbInit(void)
{
#if USB_INTR_CFG_SET != 0
    USB_INTR_CFG |= USB_INTR_CFG_SET;
    7484:	80 91 69 00 	lds	r24, 0x0069	; 0x800069 <__DATA_REGION_ORIGIN__+0x9>

00007488 <.Loc.150>:
    7488:	82 60       	ori	r24, 0x02	; 2
    748a:	80 93 69 00 	sts	0x0069, r24	; 0x800069 <__DATA_REGION_ORIGIN__+0x9>

0000748e <.Loc.151>:
#endif
#if USB_INTR_CFG_CLR != 0
    USB_INTR_CFG &= ~(USB_INTR_CFG_CLR);
#endif
    USB_INTR_ENABLE |= (1 << USB_INTR_ENABLE_BIT);
    748e:	e8 9a       	sbi	0x1d, 0	; 29

00007490 <.LBE97>:
    usbDeviceDisconnect();  /* do this while interrupts are disabled */
    7490:	53 9a       	sbi	0x0a, 3	; 10

00007492 <.LBB99>:
    asm volatile (
    7492:	8c e0       	ldi	r24, 0x0C	; 12
    7494:	e0 e0       	ldi	r30, 0x00	; 0
    7496:	f5 e3       	ldi	r31, 0x35	; 53

00007498 <_mywait_sleeploop376>:
    7498:	a8 95       	wdr
    749a:	31 97       	sbiw	r30, 0x01	; 1
    749c:	80 40       	sbci	r24, 0x00	; 0
    749e:	e1 f7       	brne	.-8      	; 0x7498 <_mywait_sleeploop376>

000074a0 <.LBE99>:
    usbDeviceConnect();
    74a0:	53 98       	cbi	0x0a, 3	; 10

000074a2 <.Loc.160>:
    sei();
    74a2:	78 94       	sei

000074a4 <.L78>:
    len = usbRxLen - 3;
    74a4:	10 91 15 01 	lds	r17, 0x0115	; 0x800115 <usbRxLen>
    74a8:	13 50       	subi	r17, 0x03	; 3

000074aa <.LVL35>:
    if(len >= 0){
    74aa:	17 fd       	sbrc	r17, 7
    74ac:	59 c0       	rjmp	.+178    	; 0x7560 <.L21>

000074ae <.Loc.170>:
        usbProcessRx(usbRxBuf + USB_BUFSIZE + 1 - usbInputBufOffset, len);
    74ae:	80 91 19 01 	lds	r24, 0x0119	; 0x800119 <usbInputBufOffset>
    74b2:	cc e0       	ldi	r28, 0x0C	; 12
    74b4:	d0 e0       	ldi	r29, 0x00	; 0
    74b6:	c8 1b       	sub	r28, r24
    74b8:	d1 09       	sbc	r29, r1

000074ba <.Loc.172>:
    74ba:	c6 5e       	subi	r28, 0xE6	; 230
    74bc:	de 4f       	sbci	r29, 0xFE	; 254

000074be <.LBB103>:
    if(usbRxToken == (uchar)USBPID_SETUP){
    74be:	80 91 13 01 	lds	r24, 0x0113	; 0x800113 <usbRxToken>
    74c2:	8d 32       	cpi	r24, 0x2D	; 45
    74c4:	09 f0       	breq	.+2      	; 0x74c8 <.LBB105>

000074c6 <L0^A>:
    74c6:	d7 c0       	rjmp	.+430    	; 0x7676 <.L22>

000074c8 <.LBB105>:
        if(len != 8)    /* Setup size must be always 8 bytes. Ignore otherwise. */
    74c8:	18 30       	cpi	r17, 0x08	; 8
    74ca:	09 f0       	breq	.+2      	; 0x74ce <.Loc.180>

000074cc <L0^A>:
    74cc:	47 c0       	rjmp	.+142    	; 0x755c <.L24>

000074ce <.Loc.180>:
        usbTxBuf[0] = USBPID_DATA0;         /* initialize data toggling */
    74ce:	83 ec       	ldi	r24, 0xC3	; 195
    74d0:	80 93 08 01 	sts	0x0108, r24	; 0x800108 <usbTxBuf>

000074d4 <.Loc.183>:
        usbTxLen = USBPID_NAK;              /* abort pending transmit */
    74d4:	8a e5       	ldi	r24, 0x5A	; 90
    74d6:	80 93 01 01 	sts	0x0101, r24	; 0x800101 <usbTxLen>

000074da <.Loc.185>:
        usbMsgFlags = 0;
    74da:	10 92 3a 01 	sts	0x013A, r1	; 0x80013a <usbMsgFlags>

000074de <.Loc.187>:
        uchar type = rq->bmRequestType & USBRQ_TYPE_MASK;
    74de:	38 81       	ld	r19, Y

000074e0 <.Loc.189>:
    74e0:	83 2f       	mov	r24, r19
    74e2:	80 76       	andi	r24, 0x60	; 96

000074e4 <.LBB106>:
    if(rq->bRequest == USBASP_FUNC_TRANSMIT){   /* emulate parts of ISP protocol */
    74e4:	99 81       	ldd	r25, Y+1	; 0x01

000074e6 <.Loc.192>:
        if(type != USBRQ_TYPE_STANDARD){    /* standard requests are handled by driver */
    74e6:	88 23       	and	r24, r24
    74e8:	09 f4       	brne	.+2      	; 0x74ec <.LBI106>

000074ea <L0^A>:
    74ea:	67 c0       	rjmp	.+206    	; 0x75ba <.L25>

000074ec <.LBI106>:
    usbMsgPtr = (usbMsgPtr_t)replyBuffer;
    74ec:	40 e3       	ldi	r20, 0x30	; 48
    74ee:	51 e0       	ldi	r21, 0x01	; 1
    74f0:	50 93 07 01 	sts	0x0107, r21	; 0x800107 <usbMsgPtr+0x1>
    74f4:	40 93 06 01 	sts	0x0106, r20	; 0x800106 <usbMsgPtr>

000074f8 <.Loc.200>:
    if(rq->bRequest == USBASP_FUNC_TRANSMIT){   /* emulate parts of ISP protocol */
    74f8:	93 30       	cpi	r25, 0x03	; 3
    74fa:	69 f4       	brne	.+26     	; 0x7516 <.L26>

000074fc <.Loc.202>:
        replyBuffer[3] = usbFunctionSetup_USBASP_FUNC_TRANSMIT(rq);
    74fc:	ce 01       	movw	r24, r28

000074fe <.Loc.204>:
    74fe:	41 df       	rcall	.-382    	; 0x7382 <usbFunctionSetup_USBASP_FUNC_TRANSMIT>

00007500 <.LVL40>:
    7500:	80 93 33 01 	sts	0x0133, r24	; 0x800133 <replyBuffer.0+0x3>

00007504 <.LVL41>:
        len = (usbMsgLen_t)4;
    7504:	84 e0       	ldi	r24, 0x04	; 4

00007506 <.L27>:
            if(!rq->wLength.bytes[1] && replyLen > rq->wLength.bytes[0])    /* limit length to max */
    7506:	9f 81       	ldd	r25, Y+7	; 0x07
    7508:	91 11       	cpse	r25, r1
    750a:	26 c0       	rjmp	.+76     	; 0x7558 <.L45>
    750c:	9e 81       	ldd	r25, Y+6	; 0x06
    750e:	98 17       	cp	r25, r24
    7510:	18 f5       	brcc	.+70     	; 0x7558 <.L45>
    7512:	89 2f       	mov	r24, r25
    7514:	21 c0       	rjmp	.+66     	; 0x7558 <.L45>

00007516 <.L26>:
    }else if((rq->bRequest == USBASP_FUNC_ENABLEPROG) || (rq->bRequest == USBASP_FUNC_SETISPSCK)){
    7516:	95 30       	cpi	r25, 0x05	; 5
    7518:	09 f4       	brne	.+2      	; 0x751c <.Loc.216>

0000751a <L0^A>:
    751a:	ab c0       	rjmp	.+342    	; 0x7672 <.L81>

0000751c <.Loc.216>:
    751c:	9a 30       	cpi	r25, 0x0A	; 10
    751e:	09 f4       	brne	.+2      	; 0x7522 <.Loc.217>

00007520 <L0^A>:
    7520:	a8 c0       	rjmp	.+336    	; 0x7672 <.L81>

00007522 <.Loc.217>:
    }else if(rq->bRequest >= USBASP_FUNC_READFLASH && rq->bRequest <= USBASP_FUNC_SETLONGADDRESS){
    7522:	8c ef       	ldi	r24, 0xFC	; 252

00007524 <.Loc.219>:
    7524:	89 0f       	add	r24, r25

00007526 <.Loc.220>:
    7526:	86 30       	cpi	r24, 0x06	; 6
    7528:	08 f0       	brcs	.+2      	; 0x752c <.Loc.221>

0000752a <L0^A>:
    752a:	3c c0       	rjmp	.+120    	; 0x75a4 <.L28>

0000752c <.Loc.221>:
        currentAddress.w[0] = rq->wValue.word;
    752c:	4a 81       	ldd	r20, Y+2	; 0x02
    752e:	5b 81       	ldd	r21, Y+3	; 0x03
    7530:	50 93 38 01 	sts	0x0138, r21	; 0x800138 <currentAddress+0x1>
    7534:	40 93 37 01 	sts	0x0137, r20	; 0x800137 <currentAddress>

00007538 <.Loc.223>:
        if(rq->bRequest == USBASP_FUNC_SETLONGADDRESS){
    7538:	99 30       	cpi	r25, 0x09	; 9
    753a:	d9 f1       	breq	.+118    	; 0x75b2 <.L29>

0000753c <.Loc.225>:
            bytesRemaining = rq->wLength.bytes[0];
    753c:	8e 81       	ldd	r24, Y+6	; 0x06

0000753e <.Loc.227>:
    753e:	80 93 36 01 	sts	0x0136, r24	; 0x800136 <bytesRemaining>

00007542 <.Loc.228>:
            isLastPage = rq->wIndex.bytes[1] & 0x02;
    7542:	2d 81       	ldd	r18, Y+5	; 0x05
    7544:	22 70       	andi	r18, 0x02	; 2

00007546 <.Loc.230>:
    7546:	20 93 35 01 	sts	0x0135, r18	; 0x800135 <isLastPage>

0000754a <.Loc.231>:
            currentRequest = rq->bRequest;
    754a:	90 93 34 01 	sts	0x0134, r25	; 0x800134 <currentRequest>

0000754e <.Loc.233>:
            if((rq->bmRequestType & USBRQ_DIR_MASK) != USBRQ_DIR_HOST_TO_DEVICE){
    754e:	37 ff       	sbrs	r19, 7
    7550:	8f ef       	ldi	r24, 0xFF	; 255

00007552 <.Loc.238>:
            usbMsgFlags = USB_FLG_USE_USER_RW;
    7552:	90 e8       	ldi	r25, 0x80	; 128
    7554:	90 93 3a 01 	sts	0x013A, r25	; 0x80013a <usbMsgFlags>

00007558 <.L45>:
        usbMsgLen = replyLen;
    7558:	80 93 00 01 	sts	0x0100, r24	; 0x800100 <usbMsgLen>

0000755c <.L24>:
        usbRxLen = 0;       /* mark rx buffer as available */
    755c:	10 92 15 01 	sts	0x0115, r1	; 0x800115 <usbRxLen>

00007560 <.L21>:
    if(usbTxLen & 0x10){    /* transmit system idle */
    7560:	80 91 01 01 	lds	r24, 0x0101	; 0x800101 <usbTxLen>

00007564 <.Loc.247>:
    7564:	84 ff       	sbrs	r24, 4
    7566:	1b c1       	rjmp	.+566    	; 0x779e <.L59>

00007568 <.Loc.248>:
        if(usbMsgLen != USB_NO_MSG){    /* transmit data pending? */
    7568:	80 91 00 01 	lds	r24, 0x0100	; 0x800100 <usbMsgLen>

0000756c <.Loc.250>:
    756c:	8f 3f       	cpi	r24, 0xFF	; 255
    756e:	09 f4       	brne	.+2      	; 0x7572 <.LBB149>

00007570 <L0^A>:
    7570:	16 c1       	rjmp	.+556    	; 0x779e <.L59>

00007572 <.LBB149>:
    if(wantLen > 8)
    7572:	18 2f       	mov	r17, r24
    7574:	89 30       	cpi	r24, 0x09	; 9
    7576:	08 f0       	brcs	.+2      	; 0x757a <.L60>
    7578:	18 e0       	ldi	r17, 0x08	; 8

0000757a <.L60>:
    usbMsgLen -= wantLen;
    757a:	98 2f       	mov	r25, r24
    757c:	91 1b       	sub	r25, r17
    757e:	90 93 00 01 	sts	0x0100, r25	; 0x800100 <usbMsgLen>

00007582 <.Loc.260>:
    usbTxBuf[0] ^= USBPID_DATA0 ^ USBPID_DATA1; /* DATA toggling */
    7582:	90 91 08 01 	lds	r25, 0x0108	; 0x800108 <usbTxBuf>
    7586:	28 e8       	ldi	r18, 0x88	; 136
    7588:	92 27       	eor	r25, r18
    758a:	90 93 08 01 	sts	0x0108, r25	; 0x800108 <usbTxBuf>

0000758e <.LBB151>:
    if(len > 0){    /* don't bother app with 0 sized reads */
    758e:	81 11       	cpse	r24, r1
    7590:	e6 c0       	rjmp	.+460    	; 0x775e <.L61>

00007592 <.LVL53>:
        usbCrc16Append(&usbTxBuf[1], len);
    7592:	60 e0       	ldi	r22, 0x00	; 0
    7594:	89 e0       	ldi	r24, 0x09	; 9
    7596:	91 e0       	ldi	r25, 0x01	; 1
    7598:	dc dd       	rcall	.-1096   	; 0x7152 <usbCrc16Append>

0000759a <.LVL54>:
        len += 4;           /* length including sync byte */
    759a:	84 e0       	ldi	r24, 0x04	; 4

0000759c <.L62>:
            usbMsgLen = USB_NO_MSG;
    759c:	9f ef       	ldi	r25, 0xFF	; 255
    759e:	90 93 00 01 	sts	0x0100, r25	; 0x800100 <usbMsgLen>
    75a2:	fb c0       	rjmp	.+502    	; 0x779a <.L73>

000075a4 <.L28>:
      stayinloader	   &= (0xfe);
    75a4:	80 91 39 01 	lds	r24, 0x0139	; 0x800139 <stayinloader>

000075a8 <.Loc.278>:
    }else if(rq->bRequest == USBASP_FUNC_DISCONNECT){
    75a8:	92 30       	cpi	r25, 0x02	; 2
    75aa:	29 f4       	brne	.+10     	; 0x75b6 <.L31>

000075ac <.Loc.279>:
      stayinloader	   &= (0xfe);
    75ac:	8e 7f       	andi	r24, 0xFE	; 254

000075ae <.L114>:
	stayinloader	   |= (0x01);
    75ae:	80 93 39 01 	sts	0x0139, r24	; 0x800139 <stayinloader>

000075b2 <.L29>:
usbMsgLen_t     len = 0;
    75b2:	80 e0       	ldi	r24, 0x00	; 0
    75b4:	a8 cf       	rjmp	.-176    	; 0x7506 <.L27>

000075b6 <.L31>:
	stayinloader	   |= (0x01);
    75b6:	81 60       	ori	r24, 0x01	; 1
    75b8:	fa cf       	rjmp	.-12     	; 0x75ae <.L114>

000075ba <.L25>:
uchar   value = rq->wValue.bytes[0];
    75ba:	2a 81       	ldd	r18, Y+2	; 0x02

000075bc <.LVL60>:
    dataPtr[0] = 0; /* default reply common to USBRQ_GET_STATUS and USBRQ_GET_INTERFACE */
    75bc:	10 92 11 01 	sts	0x0111, r1	; 0x800111 <usbTxBuf+0x9>

000075c0 <.LBB121>:
    SWITCH_CASE(USBRQ_GET_STATUS)           /* 0 */
    75c0:	91 11       	cpse	r25, r1
    75c2:	0a c0       	rjmp	.+20     	; 0x75d8 <.L32>

000075c4 <.LBB122>:
        dataPtr[1] = 0;
    75c4:	10 92 12 01 	sts	0x0112, r1	; 0x800112 <usbTxBuf+0xa>

000075c8 <.Loc.303>:
uchar   *dataPtr = usbTxBuf + 9;    /* there are 2 bytes free space at the end of the buffer */
    75c8:	21 e1       	ldi	r18, 0x11	; 17
    75ca:	31 e0       	ldi	r19, 0x01	; 1

000075cc <.LVL64>:
        len = 2;
    75cc:	82 e0       	ldi	r24, 0x02	; 2

000075ce <.L33>:
    usbMsgPtr = (usbMsgPtr_t)dataPtr;
    75ce:	30 93 07 01 	sts	0x0107, r19	; 0x800107 <usbMsgPtr+0x1>
    75d2:	20 93 06 01 	sts	0x0106, r18	; 0x800106 <usbMsgPtr>

000075d6 <.Loc.311>:
        if(replyLen == USB_NO_MSG){         /* use user-supplied read/write function */
    75d6:	97 cf       	rjmp	.-210    	; 0x7506 <.L27>

000075d8 <.L32>:
    SWITCH_CASE(USBRQ_SET_ADDRESS)          /* 5 */
    75d8:	95 30       	cpi	r25, 0x05	; 5
    75da:	29 f4       	brne	.+10     	; 0x75e6 <.L34>

000075dc <.Loc.314>:
        usbNewDeviceAddr = value;
    75dc:	20 93 17 01 	sts	0x0117, r18	; 0x800117 <usbNewDeviceAddr>

000075e0 <.L44>:
uchar   *dataPtr = usbTxBuf + 9;    /* there are 2 bytes free space at the end of the buffer */
    75e0:	21 e1       	ldi	r18, 0x11	; 17
    75e2:	31 e0       	ldi	r19, 0x01	; 1

000075e4 <.Loc.319>:
    75e4:	f4 cf       	rjmp	.-24     	; 0x75ce <.L33>

000075e6 <.L34>:
    SWITCH_CASE(USBRQ_GET_DESCRIPTOR)       /* 6 */
    75e6:	96 30       	cpi	r25, 0x06	; 6
    75e8:	99 f5       	brne	.+102    	; 0x7650 <.L36>

000075ea <.Loc.321>:
        len = usbDriverDescriptor(rq);
    75ea:	9b 81       	ldd	r25, Y+3	; 0x03

000075ec <.LBB124>:
    SWITCH_CASE(USBDESCR_DEVICE)    /* 1 */
    75ec:	91 30       	cpi	r25, 0x01	; 1
    75ee:	59 f4       	brne	.+22     	; 0x7606 <.L37>

000075f0 <.Loc.328>:
        GET_DESCRIPTOR(USB_CFG_DESCR_PROPS_DEVICE, usbDescriptorDevice)
    75f0:	88 e9       	ldi	r24, 0x98	; 152
    75f2:	90 e7       	ldi	r25, 0x70	; 112

000075f4 <.L38>:
        GET_DESCRIPTOR(USB_CFG_DESCR_PROPS_CONFIGURATION, usbDescriptorConfiguration)
    75f4:	90 93 07 01 	sts	0x0107, r25	; 0x800107 <usbMsgPtr+0x1>
    75f8:	80 93 06 01 	sts	0x0106, r24	; 0x800106 <usbMsgPtr>

000075fc <.Loc.334>:
        GET_DESCRIPTOR(USB_CFG_DESCR_PROPS_DEVICE, usbDescriptorDevice)
    75fc:	82 e1       	ldi	r24, 0x12	; 18

000075fe <.L40>:
    usbMsgFlags = flags;
    75fe:	90 e4       	ldi	r25, 0x40	; 64

00007600 <.Loc.338>:
    7600:	90 93 3a 01 	sts	0x013A, r25	; 0x80013a <usbMsgFlags>

00007604 <.Loc.339>:
        if(replyLen == USB_NO_MSG){         /* use user-supplied read/write function */
    7604:	80 cf       	rjmp	.-256    	; 0x7506 <.L27>

00007606 <.L37>:
    SWITCH_CASE(USBDESCR_CONFIG)    /* 2 */
    7606:	92 30       	cpi	r25, 0x02	; 2
    7608:	19 f4       	brne	.+6      	; 0x7610 <.L39>

0000760a <.Loc.345>:
        GET_DESCRIPTOR(USB_CFG_DESCR_PROPS_CONFIGURATION, usbDescriptorConfiguration)
    760a:	86 e8       	ldi	r24, 0x86	; 134
    760c:	90 e7       	ldi	r25, 0x70	; 112

0000760e <.Loc.350>:
    760e:	f2 cf       	rjmp	.-28     	; 0x75f4 <.L38>

00007610 <.L39>:
    SWITCH_CASE(USBDESCR_STRING)    /* 3 */
    7610:	93 30       	cpi	r25, 0x03	; 3
    7612:	a9 f7       	brne	.-22     	; 0x75fe <.L40>

00007614 <.LBB127>:
        SWITCH_CASE(0)
    7614:	21 11       	cpse	r18, r1
    7616:	08 c0       	rjmp	.+16     	; 0x7628 <.L41>

00007618 <.Loc.355>:
            GET_DESCRIPTOR(USB_CFG_DESCR_PROPS_STRING_0, usbDescriptorString0)
    7618:	84 ed       	ldi	r24, 0xD4	; 212
    761a:	90 e7       	ldi	r25, 0x70	; 112

0000761c <.Loc.360>:
    761c:	90 93 07 01 	sts	0x0107, r25	; 0x800107 <usbMsgPtr+0x1>
    7620:	80 93 06 01 	sts	0x0106, r24	; 0x800106 <usbMsgPtr>
    7624:	84 e0       	ldi	r24, 0x04	; 4
    7626:	eb cf       	rjmp	.-42     	; 0x75fe <.L40>

00007628 <.L41>:
        SWITCH_CASE(1)
    7628:	21 30       	cpi	r18, 0x01	; 1
    762a:	41 f4       	brne	.+16     	; 0x763c <.L42>

0000762c <.Loc.362>:
            GET_DESCRIPTOR(USB_CFG_DESCR_PROPS_STRING_VENDOR, usbDescriptorStringVendor)
    762c:	88 eb       	ldi	r24, 0xB8	; 184
    762e:	90 e7       	ldi	r25, 0x70	; 112

00007630 <.Loc.367>:
    7630:	90 93 07 01 	sts	0x0107, r25	; 0x800107 <usbMsgPtr+0x1>
    7634:	80 93 06 01 	sts	0x0106, r24	; 0x800106 <usbMsgPtr>
    7638:	8c e1       	ldi	r24, 0x1C	; 28
    763a:	e1 cf       	rjmp	.-62     	; 0x75fe <.L40>

0000763c <.L42>:
        SWITCH_CASE(2)
    763c:	22 30       	cpi	r18, 0x02	; 2
    763e:	f9 f6       	brne	.-66     	; 0x75fe <.L40>

00007640 <.Loc.369>:
            GET_DESCRIPTOR(USB_CFG_DESCR_PROPS_STRING_PRODUCT, usbDescriptorStringDevice)
    7640:	8a ea       	ldi	r24, 0xAA	; 170
    7642:	90 e7       	ldi	r25, 0x70	; 112

00007644 <.Loc.374>:
    7644:	90 93 07 01 	sts	0x0107, r25	; 0x800107 <usbMsgPtr+0x1>
    7648:	80 93 06 01 	sts	0x0106, r24	; 0x800106 <usbMsgPtr>
    764c:	8e e0       	ldi	r24, 0x0E	; 14
    764e:	d7 cf       	rjmp	.-82     	; 0x75fe <.L40>

00007650 <.L36>:
    SWITCH_CASE(USBRQ_GET_CONFIGURATION)    /* 8 */
    7650:	98 30       	cpi	r25, 0x08	; 8
    7652:	59 f0       	breq	.+22     	; 0x766a <.L82>

00007654 <.Loc.377>:
    SWITCH_CASE(USBRQ_SET_CONFIGURATION)    /* 9 */
    7654:	99 30       	cpi	r25, 0x09	; 9
    7656:	19 f4       	brne	.+6      	; 0x765e <.L43>

00007658 <.Loc.378>:
        usbConfiguration = value;
    7658:	20 93 16 01 	sts	0x0116, r18	; 0x800116 <usbConfiguration>

0000765c <.LBB131>:
}
    765c:	c1 cf       	rjmp	.-126    	; 0x75e0 <.L44>

0000765e <.L43>:
    SWITCH_CASE(USBRQ_GET_INTERFACE)        /* 10 */
    765e:	81 e0       	ldi	r24, 0x01	; 1

00007660 <.Loc.385>:
    7660:	9a 30       	cpi	r25, 0x0A	; 10
    7662:	09 f4       	brne	.+2      	; 0x7666 <L0^A+0x2>

00007664 <L0^A>:
    7664:	bd cf       	rjmp	.-134    	; 0x75e0 <.L44>
    7666:	80 e0       	ldi	r24, 0x00	; 0
    7668:	bb cf       	rjmp	.-138    	; 0x75e0 <.L44>

0000766a <.L82>:
        dataPtr = &usbConfiguration;  /* send current configuration value */
    766a:	26 e1       	ldi	r18, 0x16	; 22
    766c:	31 e0       	ldi	r19, 0x01	; 1

0000766e <.Loc.387>:
        len = 1;
    766e:	81 e0       	ldi	r24, 0x01	; 1

00007670 <.Loc.388>:
    7670:	ae cf       	rjmp	.-164    	; 0x75ce <.L33>

00007672 <.L81>:
        len = (usbMsgLen_t)1;
    7672:	81 e0       	ldi	r24, 0x01	; 1

00007674 <.Loc.391>:
    7674:	48 cf       	rjmp	.-368    	; 0x7506 <.L27>

00007676 <.L22>:
        if(usbMsgFlags & USB_FLG_USE_USER_RW){
    7676:	80 91 3a 01 	lds	r24, 0x013A	; 0x80013a <usbMsgFlags>
    767a:	87 ff       	sbrs	r24, 7
    767c:	6f cf       	rjmp	.-290    	; 0x755c <.L24>

0000767e <.LBB143>:
    if(len > bytesRemaining)
    767e:	00 91 36 01 	lds	r16, 0x0136	; 0x800136 <bytesRemaining>
    7682:	01 17       	cp	r16, r17
    7684:	08 f4       	brcc	.+2      	; 0x7688 <.L48>
    7686:	10 2f       	mov	r17, r16

00007688 <.L48>:
    bytesRemaining -= len;
    7688:	01 1b       	sub	r16, r17
    768a:	00 93 36 01 	sts	0x0136, r16	; 0x800136 <bytesRemaining>

0000768e <.LVL100>:
    for(i = 0; i < len;) {
    768e:	f1 2c       	mov	r15, r1

00007690 <.L49>:
    7690:	f1 16       	cp	r15, r17
    7692:	28 f0       	brcs	.+10     	; 0x769e <.L58>

00007694 <.LVL102>:
            }else if(rval != 0){    /* This was the final package */
    7694:	01 11       	cpse	r16, r1
    7696:	62 cf       	rjmp	.-316    	; 0x755c <.L24>

00007698 <.L52>:
                usbMsgLen = 0;  /* answer with a zero-sized data packet */
    7698:	10 92 00 01 	sts	0x0100, r1	; 0x800100 <usbMsgLen>
    769c:	5f cf       	rjmp	.-322    	; 0x755c <.L24>

0000769e <.L58>:
	eeprom_write_byte((void *)(currentAddress.w[0]++), *data++);
    769e:	80 91 37 01 	lds	r24, 0x0137	; 0x800137 <currentAddress>
    76a2:	90 91 38 01 	lds	r25, 0x0138	; 0x800138 <currentAddress+0x1>

000076a6 <.Loc.416>:
      if(currentRequest >= USBASP_FUNC_READEEPROM){
    76a6:	20 91 34 01 	lds	r18, 0x0134	; 0x800134 <currentRequest>
    76aa:	27 30       	cpi	r18, 0x07	; 7
    76ac:	58 f0       	brcs	.+22     	; 0x76c4 <.L50>

000076ae <.Loc.417>:
	eeprom_write_byte((void *)(currentAddress.w[0]++), *data++);
    76ae:	69 91       	ld	r22, Y+

000076b0 <.Loc.419>:
    76b0:	9c 01       	movw	r18, r24
    76b2:	2f 5f       	subi	r18, 0xFF	; 255
    76b4:	3f 4f       	sbci	r19, 0xFF	; 255
    76b6:	30 93 38 01 	sts	0x0138, r19	; 0x800138 <currentAddress+0x1>
    76ba:	20 93 37 01 	sts	0x0137, r18	; 0x800137 <currentAddress>

000076be <.Loc.420>:
    76be:	d3 d0       	rcall	.+422    	; 0x7866 <eeprom_write_byte>

000076c0 <.LVL107>:
	i++;
    76c0:	f3 94       	inc	r15

000076c2 <.Loc.423>:
    76c2:	e6 cf       	rjmp	.-52     	; 0x7690 <.L49>

000076c4 <.L50>:
	if (CURRENT_ADDRESS >= (addr_t)(BOOTLOADER_PAGEADDR)) {
    76c4:	81 15       	cp	r24, r1
    76c6:	90 47       	sbci	r25, 0x70	; 112
    76c8:	38 f7       	brcc	.-50     	; 0x7698 <.L52>

000076ca <.Loc.426>:
	i += 2;
    76ca:	f3 94       	inc	r15
    76cc:	f3 94       	inc	r15

000076ce <.Loc.428>:
	cli();
    76ce:	f8 94       	cli

000076d0 <.Loc.430>:
	boot_page_fill(CURRENT_ADDRESS, *(short *)data);
    76d0:	e0 91 37 01 	lds	r30, 0x0137	; 0x800137 <currentAddress>
    76d4:	f0 91 38 01 	lds	r31, 0x0138	; 0x800138 <currentAddress+0x1>
    76d8:	28 81       	ld	r18, Y
    76da:	39 81       	ldd	r19, Y+1	; 0x01
    76dc:	81 e0       	ldi	r24, 0x01	; 1
    76de:	09 01       	movw	r0, r18
    76e0:	80 93 57 00 	sts	0x0057, r24	; 0x800057 <__TEXT_REGION_LENGTH__+0x7e0057>
    76e4:	e8 95       	spm
    76e6:	11 24       	eor	r1, r1

000076e8 <.Loc.431>:
	sei();
    76e8:	78 94       	sei

000076ea <.Loc.432>:
	CURRENT_ADDRESS += 2;
    76ea:	80 91 37 01 	lds	r24, 0x0137	; 0x800137 <currentAddress>
    76ee:	90 91 38 01 	lds	r25, 0x0138	; 0x800138 <currentAddress+0x1>
    76f2:	02 96       	adiw	r24, 0x02	; 2
    76f4:	90 93 38 01 	sts	0x0138, r25	; 0x800138 <currentAddress+0x1>
    76f8:	80 93 37 01 	sts	0x0137, r24	; 0x800137 <currentAddress>

000076fc <.Loc.434>:
	if((currentAddress.w[0] & (SPM_PAGESIZE - 1)) == 0 || (isLast && i >= len && isLastPage)){
    76fc:	8f 77       	andi	r24, 0x7F	; 127
    76fe:	99 27       	eor	r25, r25

00007700 <.Loc.437>:
    7700:	89 2b       	or	r24, r25
    7702:	51 f0       	breq	.+20     	; 0x7718 <.L53>

00007704 <.Loc.438>:
    7704:	01 11       	cpse	r16, r1
    7706:	02 c0       	rjmp	.+4      	; 0x770c <.L54>

00007708 <.Loc.439>:
    7708:	f1 16       	cp	r15, r17
    770a:	10 f4       	brcc	.+4      	; 0x7710 <.L55>

0000770c <.L54>:
	data += 2;
    770c:	22 96       	adiw	r28, 0x02	; 2

0000770e <.Loc.441>:
    770e:	c0 cf       	rjmp	.-128    	; 0x7690 <.L49>

00007710 <.L55>:
	if((currentAddress.w[0] & (SPM_PAGESIZE - 1)) == 0 || (isLast && i >= len && isLastPage)){
    7710:	80 91 35 01 	lds	r24, 0x0135	; 0x800135 <isLastPage>
    7714:	88 23       	and	r24, r24
    7716:	d1 f3       	breq	.-12     	; 0x770c <.L54>

00007718 <.L53>:
	    cli();
    7718:	f8 94       	cli

0000771a <.Loc.445>:
	    boot_page_erase(CURRENT_ADDRESS - 2);   /* erase page */
    771a:	e0 91 37 01 	lds	r30, 0x0137	; 0x800137 <currentAddress>
    771e:	f0 91 38 01 	lds	r31, 0x0138	; 0x800138 <currentAddress+0x1>
    7722:	32 97       	sbiw	r30, 0x02	; 2
    7724:	83 e0       	ldi	r24, 0x03	; 3
    7726:	80 93 57 00 	sts	0x0057, r24	; 0x800057 <__TEXT_REGION_LENGTH__+0x7e0057>
    772a:	e8 95       	spm

0000772c <.Loc.446>:
	    sei();
    772c:	78 94       	sei

0000772e <.L56>:
	    boot_spm_busy_wait();                   /* wait until page is erased */
    772e:	07 b6       	in	r0, 0x37	; 55
    7730:	00 fc       	sbrc	r0, 0
    7732:	fd cf       	rjmp	.-6      	; 0x772e <.L56>

00007734 <.Loc.450>:
	    cli();
    7734:	f8 94       	cli

00007736 <.Loc.452>:
	    boot_page_write(CURRENT_ADDRESS - 2);
    7736:	e0 91 37 01 	lds	r30, 0x0137	; 0x800137 <currentAddress>
    773a:	f0 91 38 01 	lds	r31, 0x0138	; 0x800138 <currentAddress+0x1>
    773e:	32 97       	sbiw	r30, 0x02	; 2
    7740:	85 e0       	ldi	r24, 0x05	; 5
    7742:	80 93 57 00 	sts	0x0057, r24	; 0x800057 <__TEXT_REGION_LENGTH__+0x7e0057>
    7746:	e8 95       	spm

00007748 <.Loc.453>:
	    sei();
    7748:	78 94       	sei

0000774a <.L57>:
	    boot_spm_busy_wait();
    774a:	07 b6       	in	r0, 0x37	; 55
    774c:	00 fc       	sbrc	r0, 0
    774e:	fd cf       	rjmp	.-6      	; 0x774a <.L57>

00007750 <.Loc.457>:
	    cli();
    7750:	f8 94       	cli

00007752 <.Loc.458>:
	    boot_rww_enable();
    7752:	81 e1       	ldi	r24, 0x11	; 17
    7754:	80 93 57 00 	sts	0x0057, r24	; 0x800057 <__TEXT_REGION_LENGTH__+0x7e0057>
    7758:	e8 95       	spm

0000775a <.Loc.459>:
	    sei();
    775a:	78 94       	sei
    775c:	d7 cf       	rjmp	.-82     	; 0x770c <.L54>

0000775e <.L61>:
        if(usbMsgFlags & USB_FLG_USE_USER_RW){
    775e:	30 91 3a 01 	lds	r19, 0x013A	; 0x80013a <usbMsgFlags>

00007762 <.Loc.463>:
    7762:	37 ff       	sbrs	r19, 7
    7764:	4f c0       	rjmp	.+158    	; 0x7804 <.L63>

00007766 <.LBB153>:
    if(len > bytesRemaining)
    7766:	80 91 36 01 	lds	r24, 0x0136	; 0x800136 <bytesRemaining>
    776a:	81 17       	cp	r24, r17
    776c:	08 f4       	brcc	.+2      	; 0x7770 <.L64>
    776e:	18 2f       	mov	r17, r24

00007770 <.L64>:
    bytesRemaining -= len;
    7770:	81 1b       	sub	r24, r17
    7772:	80 93 36 01 	sts	0x0136, r24	; 0x800136 <bytesRemaining>

00007776 <.LVL116>:
        if(currentRequest >= USBASP_FUNC_READEEPROM){
    7776:	d0 90 34 01 	lds	r13, 0x0134	; 0x800134 <currentRequest>

0000777a <.Loc.473>:
    for(i = 0; i < len; i++){
    777a:	00 e0       	ldi	r16, 0x00	; 0

0000777c <.Loc.474>:
    777c:	89 e0       	ldi	r24, 0x09	; 9
    777e:	e8 2e       	mov	r14, r24
    7780:	81 e0       	ldi	r24, 0x01	; 1
    7782:	f8 2e       	mov	r15, r24

00007784 <.L65>:
    7784:	10 13       	cpse	r17, r16
    7786:	28 c0       	rjmp	.+80     	; 0x77d8 <.L68>

00007788 <.L69>:
        usbCrc16Append(&usbTxBuf[1], len);
    7788:	61 2f       	mov	r22, r17
    778a:	89 e0       	ldi	r24, 0x09	; 9
    778c:	91 e0       	ldi	r25, 0x01	; 1
    778e:	e1 dc       	rcall	.-1598   	; 0x7152 <usbCrc16Append>

00007790 <.LVL119>:
        len += 4;           /* length including sync byte */
    7790:	84 e0       	ldi	r24, 0x04	; 4
    7792:	81 0f       	add	r24, r17

00007794 <.Loc.480>:
        if(len < 12)        /* a partial package identifies end of message */
    7794:	18 30       	cpi	r17, 0x08	; 8
    7796:	09 f0       	breq	.+2      	; 0x779a <.L73>

00007798 <L0^A>:
    7798:	01 cf       	rjmp	.-510    	; 0x759c <.L62>

0000779a <.L73>:
    usbTxLen = len;
    779a:	80 93 01 01 	sts	0x0101, r24	; 0x800101 <usbTxLen>

0000779e <.L59>:
        len += 4;           /* length including sync byte */
    779e:	84 e1       	ldi	r24, 0x14	; 20

000077a0 <.L75>:
        uchar usbLineStatus = USBIN & USBMASK;
    77a0:	99 b1       	in	r25, 0x09	; 9

000077a2 <.LVL124>:
    77a2:	9c 70       	andi	r25, 0x0C	; 12

000077a4 <.Loc.494>:
        if(usbLineStatus != 0)  /* SE0 has ended */
    77a4:	91 11       	cpse	r25, r1
    77a6:	07 c0       	rjmp	.+14     	; 0x77b6 <.L74>

000077a8 <.LBE174>:
    for(i = 20; i > 0; i--){
    77a8:	81 50       	subi	r24, 0x01	; 1

000077aa <.Loc.497>:
    77aa:	81 11       	cpse	r24, r1
    77ac:	f9 cf       	rjmp	.-14     	; 0x77a0 <.L75>

000077ae <.Loc.498>:
    usbNewDeviceAddr = 0;
    77ae:	10 92 17 01 	sts	0x0117, r1	; 0x800117 <usbNewDeviceAddr>

000077b2 <.Loc.500>:
    usbDeviceAddr = 0;
    77b2:	10 92 18 01 	sts	0x0118, r1	; 0x800118 <usbDeviceAddr>

000077b6 <.L74>:
  : [sil]        "+d" (stayinloader)
  : [pin]         "I" (_SFR_IO_ADDR(PIN_PIN(JUMPER_PORT))),
    [bit]         "I" (PIN(JUMPER_PORT, JUMPER_BIT))
);
#else
	if (stayinloader >= 0x10) {
    77b6:	80 91 39 01 	lds	r24, 0x0139	; 0x800139 <stayinloader>

000077ba <.Loc.511>:
    77ba:	80 31       	cpi	r24, 0x10	; 16
    77bc:	08 f4       	brcc	.+2      	; 0x77c0 <.Loc.512>

000077be <L0^A>:
    77be:	40 c0       	rjmp	.+128    	; 0x7840 <.L76>

000077c0 <.Loc.512>:
	  if (!bootLoaderConditionSimple()) {
    77c0:	4c 9b       	sbis	0x09, 4	; 9
    77c2:	05 c0       	rjmp	.+10     	; 0x77ce <.L77>

000077c4 <.Loc.514>:
	    stayinloader-=0x10;
    77c4:	80 91 39 01 	lds	r24, 0x0139	; 0x800139 <stayinloader>
    77c8:	80 51       	subi	r24, 0x10	; 16

000077ca <.L115>:
	  } 
	} else {
	  if (bootLoaderConditionSimple()) {
	    if (stayinloader > 1) stayinloader-=2;
    77ca:	80 93 39 01 	sts	0x0139, r24	; 0x800139 <stayinloader>

000077ce <.L77>:
#endif
#endif
#endif

#if BOOTLOADER_CAN_EXIT
        }while (stayinloader);	/* main event loop, if BOOTLOADER_CAN_EXIT*/
    77ce:	80 91 39 01 	lds	r24, 0x0139	; 0x800139 <stayinloader>
    77d2:	81 11       	cpse	r24, r1
    77d4:	67 ce       	rjmp	.-818    	; 0x74a4 <.L78>
    77d6:	3b ce       	rjmp	.-906    	; 0x744e <.L79>

000077d8 <.L68>:
            *data = eeprom_read_byte((void *)currentAddress.w[0]);
    77d8:	c0 91 37 01 	lds	r28, 0x0137	; 0x800137 <currentAddress>
    77dc:	d0 91 38 01 	lds	r29, 0x0138	; 0x800138 <currentAddress+0x1>

000077e0 <.Loc.520>:
        if(currentRequest >= USBASP_FUNC_READEEPROM){
    77e0:	26 e0       	ldi	r18, 0x06	; 6
    77e2:	2d 15       	cp	r18, r13
    77e4:	60 f4       	brcc	.+24     	; 0x77fe <.L66>

000077e6 <.Loc.521>:
            *data = eeprom_read_byte((void *)currentAddress.w[0]);
    77e6:	ce 01       	movw	r24, r28
    77e8:	36 d0       	rcall	.+108    	; 0x7856 <eeprom_read_byte>

000077ea <.L67>:
    77ea:	f7 01       	movw	r30, r14
    77ec:	81 93       	st	Z+, r24
    77ee:	7f 01       	movw	r14, r30

000077f0 <.Loc.524>:
        CURRENT_ADDRESS++;
    77f0:	21 96       	adiw	r28, 0x01	; 1
    77f2:	d0 93 38 01 	sts	0x0138, r29	; 0x800138 <currentAddress+0x1>
    77f6:	c0 93 37 01 	sts	0x0137, r28	; 0x800137 <currentAddress>

000077fa <.Loc.527>:
    for(i = 0; i < len; i++){
    77fa:	0f 5f       	subi	r16, 0xFF	; 255

000077fc <.Loc.528>:
    77fc:	c3 cf       	rjmp	.-122    	; 0x7784 <.L65>

000077fe <.L66>:
            *data = pgm_read_byte(CURRENT_ADDRESS);
    77fe:	fe 01       	movw	r30, r28
    7800:	84 91       	lpm	r24, Z

00007802 <.LVL134>:
    7802:	f3 cf       	rjmp	.-26     	; 0x77ea <.L67>

00007804 <.L63>:
            usbMsgPtr_t r = usbMsgPtr;
    7804:	80 91 06 01 	lds	r24, 0x0106	; 0x800106 <usbMsgPtr>
    7808:	90 91 07 01 	lds	r25, 0x0107	; 0x800107 <usbMsgPtr+0x1>

0000780c <.LVL136>:
            if(usbMsgFlags & USB_FLG_MSGPTR_IS_ROM){    /* ROM data */
    780c:	21 2f       	mov	r18, r17
    780e:	28 0f       	add	r18, r24

00007810 <.Loc.539>:
            usbMsgPtr_t r = usbMsgPtr;
    7810:	fc 01       	movw	r30, r24
    7812:	89 e0       	ldi	r24, 0x09	; 9
    7814:	91 e0       	ldi	r25, 0x01	; 1

00007816 <.LVL137>:
            if(usbMsgFlags & USB_FLG_MSGPTR_IS_ROM){    /* ROM data */
    7816:	36 ff       	sbrs	r19, 6
    7818:	0c c0       	rjmp	.+24     	; 0x7832 <.L70>

0000781a <.L71>:
                    uchar c = USB_READ_FLASH(r);    /* assign to char size variable to enforce byte ops */
    781a:	34 91       	lpm	r19, Z

0000781c <.LBE160>:
                    *data++ = c;
    781c:	dc 01       	movw	r26, r24

0000781e <.Loc.549>:
    781e:	3c 93       	st	X, r19
    7820:	01 96       	adiw	r24, 0x01	; 1

00007822 <.Loc.550>:
                    r++;
    7822:	31 96       	adiw	r30, 0x01	; 1

00007824 <.LBE159>:
                }while(--i);
    7824:	2e 13       	cpse	r18, r30
    7826:	f9 cf       	rjmp	.-14     	; 0x781a <.L71>

00007828 <.L72>:
            usbMsgPtr = r;
    7828:	f0 93 07 01 	sts	0x0107, r31	; 0x800107 <usbMsgPtr+0x1>
    782c:	e0 93 06 01 	sts	0x0106, r30	; 0x800106 <usbMsgPtr>

00007830 <.Loc.557>:
    if(len <= 8){           /* valid data packet */
    7830:	ab cf       	rjmp	.-170    	; 0x7788 <.L69>

00007832 <.L70>:
                    *data++ = *((uchar *)r);
    7832:	dc 01       	movw	r26, r24

00007834 <.Loc.563>:
    7834:	31 91       	ld	r19, Z+

00007836 <.Loc.564>:
    7836:	3c 93       	st	X, r19
    7838:	01 96       	adiw	r24, 0x01	; 1

0000783a <.Loc.565>:
                }while(--i);
    783a:	2e 13       	cpse	r18, r30
    783c:	fa cf       	rjmp	.-12     	; 0x7832 <.L70>
    783e:	f4 cf       	rjmp	.-24     	; 0x7828 <.L72>

00007840 <.L76>:
	  if (bootLoaderConditionSimple()) {
    7840:	4c 99       	sbic	0x09, 4	; 9
    7842:	c5 cf       	rjmp	.-118    	; 0x77ce <.L77>

00007844 <.Loc.571>:
	    if (stayinloader > 1) stayinloader-=2;
    7844:	80 91 39 01 	lds	r24, 0x0139	; 0x800139 <stayinloader>

00007848 <.Loc.573>:
    7848:	82 30       	cpi	r24, 0x02	; 2
    784a:	08 f4       	brcc	.+2      	; 0x784e <.Loc.574>

0000784c <L0^A>:
    784c:	c0 cf       	rjmp	.-128    	; 0x77ce <.L77>

0000784e <.Loc.574>:
    784e:	80 91 39 01 	lds	r24, 0x0139	; 0x800139 <stayinloader>
    7852:	82 50       	subi	r24, 0x02	; 2
    7854:	ba cf       	rjmp	.-140    	; 0x77ca <.L115>

00007856 <eeprom_read_byte>:
    7856:	f9 99       	sbic	0x1f, 1	; 31
    7858:	fe cf       	rjmp	.-4      	; 0x7856 <eeprom_read_byte>
    785a:	92 bd       	out	0x22, r25	; 34
    785c:	81 bd       	out	0x21, r24	; 33
    785e:	f8 9a       	sbi	0x1f, 0	; 31
    7860:	99 27       	eor	r25, r25
    7862:	80 b5       	in	r24, 0x20	; 32
    7864:	08 95       	ret

00007866 <eeprom_write_byte>:
    7866:	26 2f       	mov	r18, r22

00007868 <eeprom_write_r18>:
    7868:	f9 99       	sbic	0x1f, 1	; 31
    786a:	fe cf       	rjmp	.-4      	; 0x7868 <eeprom_write_r18>
    786c:	1f ba       	out	0x1f, r1	; 31
    786e:	92 bd       	out	0x22, r25	; 34
    7870:	81 bd       	out	0x21, r24	; 33
    7872:	20 bd       	out	0x20, r18	; 32
    7874:	0f b6       	in	r0, 0x3f	; 63
    7876:	f8 94       	cli
    7878:	fa 9a       	sbi	0x1f, 2	; 31
    787a:	f9 9a       	sbi	0x1f, 1	; 31
    787c:	0f be       	out	0x3f, r0	; 63
    787e:	01 96       	adiw	r24, 0x01	; 1
    7880:	08 95       	ret

00007882 <_exit>:
    7882:	f8 94       	cli

00007884 <__stop_program>:
    7884:	ff cf       	rjmp	.-2      	; 0x7884 <__stop_program>
